
HW3-1.elf:     file format elf32-littleriscv


Disassembly of section .text:

00000000 <_start>:
       0:	00010297          	auipc	t0,0x10
       4:	65028293          	addi	t0,t0,1616 # 10650 <trap_handler>
       8:	30529073          	.4byte	0x30529073
       c:	3050e073          	.4byte	0x3050e073
      10:	00022297          	auipc	t0,0x22
      14:	85428293          	addi	t0,t0,-1964 # 21864 <__malloc_max_total_mem>
      18:	00022317          	auipc	t1,0x22
      1c:	b5c30313          	addi	t1,t1,-1188 # 21b74 <_bss_end>

00000020 <_bss_clear>:
      20:	0002a023          	sw	zero,0(t0)
      24:	00428293          	addi	t0,t0,4
      28:	fe62ece3          	bltu	t0,t1,20 <_bss_clear>
      2c:	00040117          	auipc	sp,0x40
      30:	fd410113          	addi	sp,sp,-44 # 40000 <_stack>
      34:	18c000ef          	jal	ra,1c0 <main>
      38:	1251006f          	j	1095c <exit>

0000003c <removeNthFromEnd>:
      3c:	00050693          	mv	a3,a0
      40:	04050e63          	beqz	a0,9c <removeNthFromEnd+0x60>
      44:	00000793          	li	a5,0
      48:	00452503          	lw	a0,4(a0)
      4c:	00178793          	addi	a5,a5,1
      50:	fe051ce3          	bnez	a0,48 <removeNthFromEnd+0xc>
      54:	00100713          	li	a4,1
      58:	04e78663          	beq	a5,a4,a4 <removeNthFromEnd+0x68>
      5c:	0046a503          	lw	a0,4(a3)
      60:	02b78c63          	beq	a5,a1,98 <removeNthFromEnd+0x5c>
      64:	40b787b3          	sub	a5,a5,a1
      68:	00100713          	li	a4,1
      6c:	fff78613          	addi	a2,a5,-1
      70:	02f75c63          	bge	a4,a5,a8 <removeNthFromEnd+0x6c>
      74:	00068713          	mv	a4,a3
      78:	00000793          	li	a5,0
      7c:	00178793          	addi	a5,a5,1
      80:	00472703          	lw	a4,4(a4)
      84:	fec79ce3          	bne	a5,a2,7c <removeNthFromEnd+0x40>
      88:	00472783          	lw	a5,4(a4)
      8c:	00068513          	mv	a0,a3
      90:	0047a783          	lw	a5,4(a5)
      94:	00f72223          	sw	a5,4(a4)
      98:	00008067          	ret
      9c:	00000793          	li	a5,0
      a0:	fbdff06f          	j	5c <removeNthFromEnd+0x20>
      a4:	00008067          	ret
      a8:	00068713          	mv	a4,a3
      ac:	fddff06f          	j	88 <removeNthFromEnd+0x4c>

000000b0 <add_node>:
      b0:	ff010113          	addi	sp,sp,-16
      b4:	00812423          	sw	s0,8(sp)
      b8:	00050413          	mv	s0,a0
      bc:	00800513          	li	a0,8
      c0:	00912223          	sw	s1,4(sp)
      c4:	00112623          	sw	ra,12(sp)
      c8:	00058493          	mv	s1,a1
      cc:	3f8000ef          	jal	ra,4c4 <malloc>
      d0:	00042783          	lw	a5,0(s0)
      d4:	00952023          	sw	s1,0(a0)
      d8:	00052223          	sw	zero,4(a0)
      dc:	02078463          	beqz	a5,104 <add_node+0x54>
      e0:	00078713          	mv	a4,a5
      e4:	0047a783          	lw	a5,4(a5)
      e8:	fe079ce3          	bnez	a5,e0 <add_node+0x30>
      ec:	00c12083          	lw	ra,12(sp)
      f0:	00812403          	lw	s0,8(sp)
      f4:	00a72223          	sw	a0,4(a4)
      f8:	00412483          	lw	s1,4(sp)
      fc:	01010113          	addi	sp,sp,16
     100:	00008067          	ret
     104:	00c12083          	lw	ra,12(sp)
     108:	00a42023          	sw	a0,0(s0)
     10c:	00812403          	lw	s0,8(sp)
     110:	00412483          	lw	s1,4(sp)
     114:	01010113          	addi	sp,sp,16
     118:	00008067          	ret

0000011c <print_list>:
     11c:	ff010113          	addi	sp,sp,-16
     120:	00112623          	sw	ra,12(sp)
     124:	00812423          	sw	s0,8(sp)
     128:	00912223          	sw	s1,4(sp)
     12c:	02050c63          	beqz	a0,164 <print_list+0x48>
     130:	00050413          	mv	s0,a0
     134:	000204b7          	lui	s1,0x20
     138:	00042583          	lw	a1,0(s0)
     13c:	09848513          	addi	a0,s1,152 # 20098 <environ+0xc>
     140:	3a1000ef          	jal	ra,ce0 <printf>
     144:	00442403          	lw	s0,4(s0)
     148:	fe0418e3          	bnez	s0,138 <print_list+0x1c>
     14c:	00812403          	lw	s0,8(sp)
     150:	00c12083          	lw	ra,12(sp)
     154:	00412483          	lw	s1,4(sp)
     158:	00a00513          	li	a0,10
     15c:	01010113          	addi	sp,sp,16
     160:	3d90006f          	j	d38 <putchar>
     164:	00020537          	lui	a0,0x20
     168:	09050513          	addi	a0,a0,144 # 20090 <environ+0x4>
     16c:	375000ef          	jal	ra,ce0 <printf>
     170:	00812403          	lw	s0,8(sp)
     174:	00c12083          	lw	ra,12(sp)
     178:	00412483          	lw	s1,4(sp)
     17c:	00a00513          	li	a0,10
     180:	01010113          	addi	sp,sp,16
     184:	3b50006f          	j	d38 <putchar>

00000188 <free_list>:
     188:	02050a63          	beqz	a0,1bc <free_list+0x34>
     18c:	ff010113          	addi	sp,sp,-16
     190:	00812423          	sw	s0,8(sp)
     194:	00112623          	sw	ra,12(sp)
     198:	00050413          	mv	s0,a0
     19c:	00040513          	mv	a0,s0
     1a0:	00442403          	lw	s0,4(s0)
     1a4:	330000ef          	jal	ra,4d4 <free>
     1a8:	fe041ae3          	bnez	s0,19c <free_list+0x14>
     1ac:	00c12083          	lw	ra,12(sp)
     1b0:	00812403          	lw	s0,8(sp)
     1b4:	01010113          	addi	sp,sp,16
     1b8:	00008067          	ret
     1bc:	00008067          	ret

000001c0 <main>:
     1c0:	fe010113          	addi	sp,sp,-32
     1c4:	00100593          	li	a1,1
     1c8:	00410513          	addi	a0,sp,4
     1cc:	00112e23          	sw	ra,28(sp)
     1d0:	00812c23          	sw	s0,24(sp)
     1d4:	00912a23          	sw	s1,20(sp)
     1d8:	01212823          	sw	s2,16(sp)
     1dc:	00012223          	sw	zero,4(sp)
     1e0:	ed1ff0ef          	jal	ra,b0 <add_node>
     1e4:	00200593          	li	a1,2
     1e8:	00410513          	addi	a0,sp,4
     1ec:	ec5ff0ef          	jal	ra,b0 <add_node>
     1f0:	00300593          	li	a1,3
     1f4:	00410513          	addi	a0,sp,4
     1f8:	eb9ff0ef          	jal	ra,b0 <add_node>
     1fc:	00400593          	li	a1,4
     200:	00410513          	addi	a0,sp,4
     204:	eadff0ef          	jal	ra,b0 <add_node>
     208:	00500593          	li	a1,5
     20c:	00410513          	addi	a0,sp,4
     210:	ea1ff0ef          	jal	ra,b0 <add_node>
     214:	00020937          	lui	s2,0x20
     218:	09c90513          	addi	a0,s2,156 # 2009c <environ+0x10>
     21c:	2c5000ef          	jal	ra,ce0 <printf>
     220:	00412403          	lw	s0,4(sp)
     224:	000204b7          	lui	s1,0x20
     228:	00040513          	mv	a0,s0
     22c:	ef1ff0ef          	jal	ra,11c <print_list>
     230:	00020537          	lui	a0,0x20
     234:	0b050513          	addi	a0,a0,176 # 200b0 <environ+0x24>
     238:	2a9000ef          	jal	ra,ce0 <printf>
     23c:	0c848513          	addi	a0,s1,200 # 200c8 <environ+0x3c>
     240:	2a1000ef          	jal	ra,ce0 <printf>
     244:	00040713          	mv	a4,s0
     248:	00000793          	li	a5,0
     24c:	22040063          	beqz	s0,46c <main+0x2ac>
     250:	00472703          	lw	a4,4(a4)
     254:	00078693          	mv	a3,a5
     258:	00178793          	addi	a5,a5,1
     25c:	fe071ae3          	bnez	a4,250 <main+0x90>
     260:	00100713          	li	a4,1
     264:	22e78c63          	beq	a5,a4,49c <main+0x2dc>
     268:	00200713          	li	a4,2
     26c:	1ee78463          	beq	a5,a4,454 <main+0x294>
     270:	00300593          	li	a1,3
     274:	ffe68693          	addi	a3,a3,-2
     278:	00040613          	mv	a2,s0
     27c:	00000713          	li	a4,0
     280:	00b78863          	beq	a5,a1,290 <main+0xd0>
     284:	00170713          	addi	a4,a4,1
     288:	00462603          	lw	a2,4(a2)
     28c:	fed71ce3          	bne	a4,a3,284 <main+0xc4>
     290:	00462783          	lw	a5,4(a2)
     294:	00040513          	mv	a0,s0
     298:	0047a783          	lw	a5,4(a5)
     29c:	00f62223          	sw	a5,4(a2)
     2a0:	e7dff0ef          	jal	ra,11c <print_list>
     2a4:	00040513          	mv	a0,s0
     2a8:	00442403          	lw	s0,4(s0)
     2ac:	228000ef          	jal	ra,4d4 <free>
     2b0:	fe041ae3          	bnez	s0,2a4 <main+0xe4>
     2b4:	00100593          	li	a1,1
     2b8:	00810513          	addi	a0,sp,8
     2bc:	00012423          	sw	zero,8(sp)
     2c0:	df1ff0ef          	jal	ra,b0 <add_node>
     2c4:	09c90513          	addi	a0,s2,156
     2c8:	219000ef          	jal	ra,ce0 <printf>
     2cc:	00812403          	lw	s0,8(sp)
     2d0:	00040513          	mv	a0,s0
     2d4:	e49ff0ef          	jal	ra,11c <print_list>
     2d8:	00020537          	lui	a0,0x20
     2dc:	0d450513          	addi	a0,a0,212 # 200d4 <environ+0x48>
     2e0:	201000ef          	jal	ra,ce0 <printf>
     2e4:	0c848513          	addi	a0,s1,200
     2e8:	1f9000ef          	jal	ra,ce0 <printf>
     2ec:	00040513          	mv	a0,s0
     2f0:	00000793          	li	a5,0
     2f4:	1c040463          	beqz	s0,4bc <main+0x2fc>
     2f8:	00452503          	lw	a0,4(a0)
     2fc:	00078713          	mv	a4,a5
     300:	00178793          	addi	a5,a5,1
     304:	fe051ae3          	bnez	a0,2f8 <main+0x138>
     308:	00100693          	li	a3,1
     30c:	02d78a63          	beq	a5,a3,340 <main+0x180>
     310:	00200693          	li	a3,2
     314:	fff70713          	addi	a4,a4,-1
     318:	18d78e63          	beq	a5,a3,4b4 <main+0x2f4>
     31c:	00040693          	mv	a3,s0
     320:	00000793          	li	a5,0
     324:	00178793          	addi	a5,a5,1
     328:	0046a683          	lw	a3,4(a3)
     32c:	fee7cce3          	blt	a5,a4,324 <main+0x164>
     330:	0046a783          	lw	a5,4(a3)
     334:	00040513          	mv	a0,s0
     338:	0047a783          	lw	a5,4(a5)
     33c:	00f6a223          	sw	a5,4(a3)
     340:	dddff0ef          	jal	ra,11c <print_list>
     344:	00040513          	mv	a0,s0
     348:	00442403          	lw	s0,4(s0)
     34c:	188000ef          	jal	ra,4d4 <free>
     350:	fe041ae3          	bnez	s0,344 <main+0x184>
     354:	00100593          	li	a1,1
     358:	00c10513          	addi	a0,sp,12
     35c:	00012623          	sw	zero,12(sp)
     360:	d51ff0ef          	jal	ra,b0 <add_node>
     364:	00200593          	li	a1,2
     368:	00c10513          	addi	a0,sp,12
     36c:	d45ff0ef          	jal	ra,b0 <add_node>
     370:	00300593          	li	a1,3
     374:	00c10513          	addi	a0,sp,12
     378:	d39ff0ef          	jal	ra,b0 <add_node>
     37c:	00400593          	li	a1,4
     380:	00c10513          	addi	a0,sp,12
     384:	d2dff0ef          	jal	ra,b0 <add_node>
     388:	00500593          	li	a1,5
     38c:	00c10513          	addi	a0,sp,12
     390:	d21ff0ef          	jal	ra,b0 <add_node>
     394:	00600593          	li	a1,6
     398:	00c10513          	addi	a0,sp,12
     39c:	d15ff0ef          	jal	ra,b0 <add_node>
     3a0:	09c90513          	addi	a0,s2,156
     3a4:	13d000ef          	jal	ra,ce0 <printf>
     3a8:	00c12403          	lw	s0,12(sp)
     3ac:	00040513          	mv	a0,s0
     3b0:	d6dff0ef          	jal	ra,11c <print_list>
     3b4:	00020537          	lui	a0,0x20
     3b8:	0ec50513          	addi	a0,a0,236 # 200ec <environ+0x60>
     3bc:	125000ef          	jal	ra,ce0 <printf>
     3c0:	0c848513          	addi	a0,s1,200
     3c4:	11d000ef          	jal	ra,ce0 <printf>
     3c8:	00040713          	mv	a4,s0
     3cc:	00000793          	li	a5,0
     3d0:	0a040a63          	beqz	s0,484 <main+0x2c4>
     3d4:	00472703          	lw	a4,4(a4)
     3d8:	00078693          	mv	a3,a5
     3dc:	00178793          	addi	a5,a5,1
     3e0:	fe071ae3          	bnez	a4,3d4 <main+0x214>
     3e4:	00100713          	li	a4,1
     3e8:	0ce78063          	beq	a5,a4,4a8 <main+0x2e8>
     3ec:	00600713          	li	a4,6
     3f0:	06e78863          	beq	a5,a4,460 <main+0x2a0>
     3f4:	00700593          	li	a1,7
     3f8:	ffa68693          	addi	a3,a3,-6
     3fc:	00040613          	mv	a2,s0
     400:	00000713          	li	a4,0
     404:	00f5d863          	bge	a1,a5,414 <main+0x254>
     408:	00170713          	addi	a4,a4,1
     40c:	00462603          	lw	a2,4(a2)
     410:	fee69ce3          	bne	a3,a4,408 <main+0x248>
     414:	00462783          	lw	a5,4(a2)
     418:	00040513          	mv	a0,s0
     41c:	0047a783          	lw	a5,4(a5)
     420:	00f62223          	sw	a5,4(a2)
     424:	cf9ff0ef          	jal	ra,11c <print_list>
     428:	00040513          	mv	a0,s0
     42c:	00442403          	lw	s0,4(s0)
     430:	0a4000ef          	jal	ra,4d4 <free>
     434:	fe041ae3          	bnez	s0,428 <main+0x268>
     438:	01c12083          	lw	ra,28(sp)
     43c:	01812403          	lw	s0,24(sp)
     440:	01412483          	lw	s1,20(sp)
     444:	01012903          	lw	s2,16(sp)
     448:	00000513          	li	a0,0
     44c:	02010113          	addi	sp,sp,32
     450:	00008067          	ret
     454:	00442503          	lw	a0,4(s0)
     458:	cc5ff0ef          	jal	ra,11c <print_list>
     45c:	e49ff06f          	j	2a4 <main+0xe4>
     460:	00442503          	lw	a0,4(s0)
     464:	cb9ff0ef          	jal	ra,11c <print_list>
     468:	fc1ff06f          	j	428 <main+0x268>
     46c:	00402783          	lw	a5,4(zero) # 4 <_start+0x4>
     470:	00000513          	li	a0,0
     474:	0047a783          	lw	a5,4(a5)
     478:	00f02223          	sw	a5,4(zero) # 4 <_start+0x4>
     47c:	ca1ff0ef          	jal	ra,11c <print_list>
     480:	e35ff06f          	j	2b4 <main+0xf4>
     484:	00402783          	lw	a5,4(zero) # 4 <_start+0x4>
     488:	00000513          	li	a0,0
     48c:	0047a783          	lw	a5,4(a5)
     490:	00f02223          	sw	a5,4(zero) # 4 <_start+0x4>
     494:	c89ff0ef          	jal	ra,11c <print_list>
     498:	fa1ff06f          	j	438 <main+0x278>
     49c:	00000513          	li	a0,0
     4a0:	c7dff0ef          	jal	ra,11c <print_list>
     4a4:	e01ff06f          	j	2a4 <main+0xe4>
     4a8:	00000513          	li	a0,0
     4ac:	c71ff0ef          	jal	ra,11c <print_list>
     4b0:	f79ff06f          	j	428 <main+0x268>
     4b4:	00040693          	mv	a3,s0
     4b8:	e79ff06f          	j	330 <main+0x170>
     4bc:	00402783          	lw	a5,4(zero) # 4 <_start+0x4>
     4c0:	00100073          	ebreak

000004c4 <malloc>:
     4c4:	00050593          	mv	a1,a0
     4c8:	00020517          	auipc	a0,0x20
     4cc:	bc052503          	lw	a0,-1088(a0) # 20088 <_impure_ptr>
     4d0:	0140006f          	j	4e4 <_malloc_r>

000004d4 <free>:
     4d4:	00050593          	mv	a1,a0
     4d8:	00020517          	auipc	a0,0x20
     4dc:	bb052503          	lw	a0,-1104(a0) # 20088 <_impure_ptr>
     4e0:	70d0506f          	j	63ec <_free_r>

000004e4 <_malloc_r>:
     4e4:	fd010113          	addi	sp,sp,-48
     4e8:	03212023          	sw	s2,32(sp)
     4ec:	02112623          	sw	ra,44(sp)
     4f0:	02812423          	sw	s0,40(sp)
     4f4:	02912223          	sw	s1,36(sp)
     4f8:	01312e23          	sw	s3,28(sp)
     4fc:	01412c23          	sw	s4,24(sp)
     500:	01512a23          	sw	s5,20(sp)
     504:	01612823          	sw	s6,16(sp)
     508:	01712623          	sw	s7,12(sp)
     50c:	01812423          	sw	s8,8(sp)
     510:	01912223          	sw	s9,4(sp)
     514:	00b58793          	addi	a5,a1,11
     518:	01600713          	li	a4,22
     51c:	00050913          	mv	s2,a0
     520:	08f76e63          	bltu	a4,a5,5bc <_malloc_r+0xd8>
     524:	01000793          	li	a5,16
     528:	22b7e063          	bltu	a5,a1,748 <_malloc_r+0x264>
     52c:	75c000ef          	jal	ra,c88 <__malloc_lock>
     530:	01000493          	li	s1,16
     534:	01800793          	li	a5,24
     538:	00200593          	li	a1,2
     53c:	00021997          	auipc	s3,0x21
     540:	96c98993          	addi	s3,s3,-1684 # 20ea8 <__malloc_av_>
     544:	00f987b3          	add	a5,s3,a5
     548:	0047a403          	lw	s0,4(a5)
     54c:	ff878713          	addi	a4,a5,-8
     550:	32e40463          	beq	s0,a4,878 <_malloc_r+0x394>
     554:	00442783          	lw	a5,4(s0)
     558:	00c42683          	lw	a3,12(s0)
     55c:	00842603          	lw	a2,8(s0)
     560:	ffc7f793          	andi	a5,a5,-4
     564:	00f407b3          	add	a5,s0,a5
     568:	0047a703          	lw	a4,4(a5)
     56c:	00d62623          	sw	a3,12(a2)
     570:	00c6a423          	sw	a2,8(a3)
     574:	00176713          	ori	a4,a4,1
     578:	00090513          	mv	a0,s2
     57c:	00e7a223          	sw	a4,4(a5)
     580:	714000ef          	jal	ra,c94 <__malloc_unlock>
     584:	00840513          	addi	a0,s0,8
     588:	02c12083          	lw	ra,44(sp)
     58c:	02812403          	lw	s0,40(sp)
     590:	02412483          	lw	s1,36(sp)
     594:	02012903          	lw	s2,32(sp)
     598:	01c12983          	lw	s3,28(sp)
     59c:	01812a03          	lw	s4,24(sp)
     5a0:	01412a83          	lw	s5,20(sp)
     5a4:	01012b03          	lw	s6,16(sp)
     5a8:	00c12b83          	lw	s7,12(sp)
     5ac:	00812c03          	lw	s8,8(sp)
     5b0:	00412c83          	lw	s9,4(sp)
     5b4:	03010113          	addi	sp,sp,48
     5b8:	00008067          	ret
     5bc:	ff87f493          	andi	s1,a5,-8
     5c0:	1807c463          	bltz	a5,748 <_malloc_r+0x264>
     5c4:	18b4e263          	bltu	s1,a1,748 <_malloc_r+0x264>
     5c8:	6c0000ef          	jal	ra,c88 <__malloc_lock>
     5cc:	1f700793          	li	a5,503
     5d0:	3a97fe63          	bgeu	a5,s1,98c <_malloc_r+0x4a8>
     5d4:	0094d793          	srli	a5,s1,0x9
     5d8:	18078063          	beqz	a5,758 <_malloc_r+0x274>
     5dc:	00400713          	li	a4,4
     5e0:	30f76463          	bltu	a4,a5,8e8 <_malloc_r+0x404>
     5e4:	0064d793          	srli	a5,s1,0x6
     5e8:	03978593          	addi	a1,a5,57
     5ec:	03878513          	addi	a0,a5,56
     5f0:	00359693          	slli	a3,a1,0x3
     5f4:	00021997          	auipc	s3,0x21
     5f8:	8b498993          	addi	s3,s3,-1868 # 20ea8 <__malloc_av_>
     5fc:	00d986b3          	add	a3,s3,a3
     600:	0046a403          	lw	s0,4(a3)
     604:	ff868693          	addi	a3,a3,-8
     608:	02868663          	beq	a3,s0,634 <_malloc_r+0x150>
     60c:	00f00613          	li	a2,15
     610:	0100006f          	j	620 <_malloc_r+0x13c>
     614:	24075c63          	bgez	a4,86c <_malloc_r+0x388>
     618:	00c42403          	lw	s0,12(s0)
     61c:	00868c63          	beq	a3,s0,634 <_malloc_r+0x150>
     620:	00442783          	lw	a5,4(s0)
     624:	ffc7f793          	andi	a5,a5,-4
     628:	40978733          	sub	a4,a5,s1
     62c:	fee654e3          	bge	a2,a4,614 <_malloc_r+0x130>
     630:	00050593          	mv	a1,a0
     634:	0109a403          	lw	s0,16(s3)
     638:	00021897          	auipc	a7,0x21
     63c:	87888893          	addi	a7,a7,-1928 # 20eb0 <__malloc_av_+0x8>
     640:	1f140e63          	beq	s0,a7,83c <_malloc_r+0x358>
     644:	00442783          	lw	a5,4(s0)
     648:	00f00693          	li	a3,15
     64c:	ffc7f793          	andi	a5,a5,-4
     650:	40978733          	sub	a4,a5,s1
     654:	34e6c263          	blt	a3,a4,998 <_malloc_r+0x4b4>
     658:	0119aa23          	sw	a7,20(s3)
     65c:	0119a823          	sw	a7,16(s3)
     660:	30075663          	bgez	a4,96c <_malloc_r+0x488>
     664:	1ff00713          	li	a4,511
     668:	0049a503          	lw	a0,4(s3)
     66c:	20f76e63          	bltu	a4,a5,888 <_malloc_r+0x3a4>
     670:	ff87f713          	andi	a4,a5,-8
     674:	00870713          	addi	a4,a4,8
     678:	00e98733          	add	a4,s3,a4
     67c:	00072683          	lw	a3,0(a4)
     680:	0057d613          	srli	a2,a5,0x5
     684:	00100793          	li	a5,1
     688:	00c797b3          	sll	a5,a5,a2
     68c:	00f56533          	or	a0,a0,a5
     690:	ff870793          	addi	a5,a4,-8
     694:	00f42623          	sw	a5,12(s0)
     698:	00d42423          	sw	a3,8(s0)
     69c:	00a9a223          	sw	a0,4(s3)
     6a0:	00872023          	sw	s0,0(a4)
     6a4:	0086a623          	sw	s0,12(a3)
     6a8:	4025d793          	srai	a5,a1,0x2
     6ac:	00100613          	li	a2,1
     6b0:	00f61633          	sll	a2,a2,a5
     6b4:	0ac56a63          	bltu	a0,a2,768 <_malloc_r+0x284>
     6b8:	00a677b3          	and	a5,a2,a0
     6bc:	02079463          	bnez	a5,6e4 <_malloc_r+0x200>
     6c0:	00161613          	slli	a2,a2,0x1
     6c4:	ffc5f593          	andi	a1,a1,-4
     6c8:	00a677b3          	and	a5,a2,a0
     6cc:	00458593          	addi	a1,a1,4
     6d0:	00079a63          	bnez	a5,6e4 <_malloc_r+0x200>
     6d4:	00161613          	slli	a2,a2,0x1
     6d8:	00a677b3          	and	a5,a2,a0
     6dc:	00458593          	addi	a1,a1,4
     6e0:	fe078ae3          	beqz	a5,6d4 <_malloc_r+0x1f0>
     6e4:	00f00813          	li	a6,15
     6e8:	00359313          	slli	t1,a1,0x3
     6ec:	00698333          	add	t1,s3,t1
     6f0:	00030513          	mv	a0,t1
     6f4:	00c52783          	lw	a5,12(a0)
     6f8:	00058e13          	mv	t3,a1
     6fc:	20f50863          	beq	a0,a5,90c <_malloc_r+0x428>
     700:	0047a703          	lw	a4,4(a5)
     704:	00078413          	mv	s0,a5
     708:	00c7a783          	lw	a5,12(a5)
     70c:	ffc77713          	andi	a4,a4,-4
     710:	409706b3          	sub	a3,a4,s1
     714:	20d84863          	blt	a6,a3,924 <_malloc_r+0x440>
     718:	fe06c2e3          	bltz	a3,6fc <_malloc_r+0x218>
     71c:	00e40733          	add	a4,s0,a4
     720:	00472683          	lw	a3,4(a4)
     724:	00842603          	lw	a2,8(s0)
     728:	00090513          	mv	a0,s2
     72c:	0016e693          	ori	a3,a3,1
     730:	00d72223          	sw	a3,4(a4)
     734:	00f62623          	sw	a5,12(a2)
     738:	00c7a423          	sw	a2,8(a5)
     73c:	558000ef          	jal	ra,c94 <__malloc_unlock>
     740:	00840513          	addi	a0,s0,8
     744:	e45ff06f          	j	588 <_malloc_r+0xa4>
     748:	00c00793          	li	a5,12
     74c:	00f92023          	sw	a5,0(s2)
     750:	00000513          	li	a0,0
     754:	e35ff06f          	j	588 <_malloc_r+0xa4>
     758:	20000693          	li	a3,512
     75c:	04000593          	li	a1,64
     760:	03f00513          	li	a0,63
     764:	e91ff06f          	j	5f4 <_malloc_r+0x110>
     768:	0089a403          	lw	s0,8(s3)
     76c:	00442783          	lw	a5,4(s0)
     770:	ffc7fb13          	andi	s6,a5,-4
     774:	009b6863          	bltu	s6,s1,784 <_malloc_r+0x2a0>
     778:	409b0733          	sub	a4,s6,s1
     77c:	00f00793          	li	a5,15
     780:	0ce7c263          	blt	a5,a4,844 <_malloc_r+0x360>
     784:	00020c97          	auipc	s9,0x20
     788:	8fcc8c93          	addi	s9,s9,-1796 # 20080 <__malloc_sbrk_base>
     78c:	000ca703          	lw	a4,0(s9)
     790:	00021a97          	auipc	s5,0x21
     794:	0dcaaa83          	lw	s5,220(s5) # 2186c <__malloc_top_pad>
     798:	fff00793          	li	a5,-1
     79c:	01640a33          	add	s4,s0,s6
     7a0:	01548ab3          	add	s5,s1,s5
     7a4:	3cf70063          	beq	a4,a5,b64 <_malloc_r+0x680>
     7a8:	000017b7          	lui	a5,0x1
     7ac:	00f78793          	addi	a5,a5,15 # 100f <_vfprintf_r+0x5f>
     7b0:	00fa8ab3          	add	s5,s5,a5
     7b4:	fffff7b7          	lui	a5,0xfffff
     7b8:	00fafab3          	and	s5,s5,a5
     7bc:	000a8593          	mv	a1,s5
     7c0:	00090513          	mv	a0,s2
     7c4:	794000ef          	jal	ra,f58 <_sbrk_r>
     7c8:	fff00793          	li	a5,-1
     7cc:	00050b93          	mv	s7,a0
     7d0:	20f50e63          	beq	a0,a5,9ec <_malloc_r+0x508>
     7d4:	21456a63          	bltu	a0,s4,9e8 <_malloc_r+0x504>
     7d8:	00021c17          	auipc	s8,0x21
     7dc:	0ccc0c13          	addi	s8,s8,204 # 218a4 <__malloc_current_mallinfo>
     7e0:	000c2583          	lw	a1,0(s8)
     7e4:	00ba85b3          	add	a1,s5,a1
     7e8:	00bc2023          	sw	a1,0(s8)
     7ec:	00058713          	mv	a4,a1
     7f0:	2aaa1063          	bne	s4,a0,a90 <_malloc_r+0x5ac>
     7f4:	01451793          	slli	a5,a0,0x14
     7f8:	28079c63          	bnez	a5,a90 <_malloc_r+0x5ac>
     7fc:	0089ab83          	lw	s7,8(s3)
     800:	015b07b3          	add	a5,s6,s5
     804:	0017e793          	ori	a5,a5,1
     808:	00fba223          	sw	a5,4(s7)
     80c:	00021717          	auipc	a4,0x21
     810:	05c70713          	addi	a4,a4,92 # 21868 <__malloc_max_sbrked_mem>
     814:	00072683          	lw	a3,0(a4)
     818:	00b6f463          	bgeu	a3,a1,820 <_malloc_r+0x33c>
     81c:	00b72023          	sw	a1,0(a4)
     820:	00021717          	auipc	a4,0x21
     824:	04470713          	addi	a4,a4,68 # 21864 <__malloc_max_total_mem>
     828:	00072683          	lw	a3,0(a4)
     82c:	00b6f463          	bgeu	a3,a1,834 <_malloc_r+0x350>
     830:	00b72023          	sw	a1,0(a4)
     834:	000b8413          	mv	s0,s7
     838:	1bc0006f          	j	9f4 <_malloc_r+0x510>
     83c:	0049a503          	lw	a0,4(s3)
     840:	e69ff06f          	j	6a8 <_malloc_r+0x1c4>
     844:	0014e793          	ori	a5,s1,1
     848:	00f42223          	sw	a5,4(s0)
     84c:	009404b3          	add	s1,s0,s1
     850:	0099a423          	sw	s1,8(s3)
     854:	00176713          	ori	a4,a4,1
     858:	00090513          	mv	a0,s2
     85c:	00e4a223          	sw	a4,4(s1)
     860:	434000ef          	jal	ra,c94 <__malloc_unlock>
     864:	00840513          	addi	a0,s0,8
     868:	d21ff06f          	j	588 <_malloc_r+0xa4>
     86c:	00c42683          	lw	a3,12(s0)
     870:	00842603          	lw	a2,8(s0)
     874:	cf1ff06f          	j	564 <_malloc_r+0x80>
     878:	00c7a403          	lw	s0,12(a5) # fffff00c <_stack+0xfffbf00c>
     87c:	00258593          	addi	a1,a1,2
     880:	da878ae3          	beq	a5,s0,634 <_malloc_r+0x150>
     884:	cd1ff06f          	j	554 <_malloc_r+0x70>
     888:	0097d713          	srli	a4,a5,0x9
     88c:	00400693          	li	a3,4
     890:	14e6f263          	bgeu	a3,a4,9d4 <_malloc_r+0x4f0>
     894:	01400693          	li	a3,20
     898:	30e6ec63          	bltu	a3,a4,bb0 <_malloc_r+0x6cc>
     89c:	05c70613          	addi	a2,a4,92
     8a0:	05b70693          	addi	a3,a4,91
     8a4:	00361613          	slli	a2,a2,0x3
     8a8:	00c98633          	add	a2,s3,a2
     8ac:	00062703          	lw	a4,0(a2)
     8b0:	ff860613          	addi	a2,a2,-8
     8b4:	00e61863          	bne	a2,a4,8c4 <_malloc_r+0x3e0>
     8b8:	2b40006f          	j	b6c <_malloc_r+0x688>
     8bc:	00872703          	lw	a4,8(a4)
     8c0:	00e60863          	beq	a2,a4,8d0 <_malloc_r+0x3ec>
     8c4:	00472683          	lw	a3,4(a4)
     8c8:	ffc6f693          	andi	a3,a3,-4
     8cc:	fed7e8e3          	bltu	a5,a3,8bc <_malloc_r+0x3d8>
     8d0:	00c72603          	lw	a2,12(a4)
     8d4:	00c42623          	sw	a2,12(s0)
     8d8:	00e42423          	sw	a4,8(s0)
     8dc:	00862423          	sw	s0,8(a2)
     8e0:	00872623          	sw	s0,12(a4)
     8e4:	dc5ff06f          	j	6a8 <_malloc_r+0x1c4>
     8e8:	01400713          	li	a4,20
     8ec:	12f77663          	bgeu	a4,a5,a18 <_malloc_r+0x534>
     8f0:	05400713          	li	a4,84
     8f4:	2cf76c63          	bltu	a4,a5,bcc <_malloc_r+0x6e8>
     8f8:	00c4d793          	srli	a5,s1,0xc
     8fc:	06f78593          	addi	a1,a5,111
     900:	06e78513          	addi	a0,a5,110
     904:	00359693          	slli	a3,a1,0x3
     908:	cedff06f          	j	5f4 <_malloc_r+0x110>
     90c:	001e0e13          	addi	t3,t3,1
     910:	003e7793          	andi	a5,t3,3
     914:	00850513          	addi	a0,a0,8
     918:	10078e63          	beqz	a5,a34 <_malloc_r+0x550>
     91c:	00c52783          	lw	a5,12(a0)
     920:	dddff06f          	j	6fc <_malloc_r+0x218>
     924:	00842603          	lw	a2,8(s0)
     928:	0014e593          	ori	a1,s1,1
     92c:	00b42223          	sw	a1,4(s0)
     930:	00f62623          	sw	a5,12(a2)
     934:	00c7a423          	sw	a2,8(a5)
     938:	009404b3          	add	s1,s0,s1
     93c:	0099aa23          	sw	s1,20(s3)
     940:	0099a823          	sw	s1,16(s3)
     944:	0016e793          	ori	a5,a3,1
     948:	0114a623          	sw	a7,12(s1)
     94c:	0114a423          	sw	a7,8(s1)
     950:	00f4a223          	sw	a5,4(s1)
     954:	00e40733          	add	a4,s0,a4
     958:	00090513          	mv	a0,s2
     95c:	00d72023          	sw	a3,0(a4)
     960:	334000ef          	jal	ra,c94 <__malloc_unlock>
     964:	00840513          	addi	a0,s0,8
     968:	c21ff06f          	j	588 <_malloc_r+0xa4>
     96c:	00f407b3          	add	a5,s0,a5
     970:	0047a703          	lw	a4,4(a5)
     974:	00090513          	mv	a0,s2
     978:	00176713          	ori	a4,a4,1
     97c:	00e7a223          	sw	a4,4(a5)
     980:	314000ef          	jal	ra,c94 <__malloc_unlock>
     984:	00840513          	addi	a0,s0,8
     988:	c01ff06f          	j	588 <_malloc_r+0xa4>
     98c:	0034d593          	srli	a1,s1,0x3
     990:	00848793          	addi	a5,s1,8
     994:	ba9ff06f          	j	53c <_malloc_r+0x58>
     998:	0014e693          	ori	a3,s1,1
     99c:	00d42223          	sw	a3,4(s0)
     9a0:	009404b3          	add	s1,s0,s1
     9a4:	0099aa23          	sw	s1,20(s3)
     9a8:	0099a823          	sw	s1,16(s3)
     9ac:	00176693          	ori	a3,a4,1
     9b0:	0114a623          	sw	a7,12(s1)
     9b4:	0114a423          	sw	a7,8(s1)
     9b8:	00d4a223          	sw	a3,4(s1)
     9bc:	00f407b3          	add	a5,s0,a5
     9c0:	00090513          	mv	a0,s2
     9c4:	00e7a023          	sw	a4,0(a5)
     9c8:	2cc000ef          	jal	ra,c94 <__malloc_unlock>
     9cc:	00840513          	addi	a0,s0,8
     9d0:	bb9ff06f          	j	588 <_malloc_r+0xa4>
     9d4:	0067d713          	srli	a4,a5,0x6
     9d8:	03970613          	addi	a2,a4,57
     9dc:	03870693          	addi	a3,a4,56
     9e0:	00361613          	slli	a2,a2,0x3
     9e4:	ec5ff06f          	j	8a8 <_malloc_r+0x3c4>
     9e8:	09340a63          	beq	s0,s3,a7c <_malloc_r+0x598>
     9ec:	0089a403          	lw	s0,8(s3)
     9f0:	00442783          	lw	a5,4(s0)
     9f4:	ffc7f793          	andi	a5,a5,-4
     9f8:	40978733          	sub	a4,a5,s1
     9fc:	0097e663          	bltu	a5,s1,a08 <_malloc_r+0x524>
     a00:	00f00793          	li	a5,15
     a04:	e4e7c0e3          	blt	a5,a4,844 <_malloc_r+0x360>
     a08:	00090513          	mv	a0,s2
     a0c:	288000ef          	jal	ra,c94 <__malloc_unlock>
     a10:	00000513          	li	a0,0
     a14:	b75ff06f          	j	588 <_malloc_r+0xa4>
     a18:	05c78593          	addi	a1,a5,92
     a1c:	05b78513          	addi	a0,a5,91
     a20:	00359693          	slli	a3,a1,0x3
     a24:	bd1ff06f          	j	5f4 <_malloc_r+0x110>
     a28:	00832783          	lw	a5,8(t1)
     a2c:	fff58593          	addi	a1,a1,-1
     a30:	24679863          	bne	a5,t1,c80 <_malloc_r+0x79c>
     a34:	0035f793          	andi	a5,a1,3
     a38:	ff830313          	addi	t1,t1,-8
     a3c:	fe0796e3          	bnez	a5,a28 <_malloc_r+0x544>
     a40:	0049a703          	lw	a4,4(s3)
     a44:	fff64793          	not	a5,a2
     a48:	00e7f7b3          	and	a5,a5,a4
     a4c:	00f9a223          	sw	a5,4(s3)
     a50:	00161613          	slli	a2,a2,0x1
     a54:	d0c7eae3          	bltu	a5,a2,768 <_malloc_r+0x284>
     a58:	d00608e3          	beqz	a2,768 <_malloc_r+0x284>
     a5c:	00f67733          	and	a4,a2,a5
     a60:	00071a63          	bnez	a4,a74 <_malloc_r+0x590>
     a64:	00161613          	slli	a2,a2,0x1
     a68:	00f67733          	and	a4,a2,a5
     a6c:	004e0e13          	addi	t3,t3,4
     a70:	fe070ae3          	beqz	a4,a64 <_malloc_r+0x580>
     a74:	000e0593          	mv	a1,t3
     a78:	c71ff06f          	j	6e8 <_malloc_r+0x204>
     a7c:	00021c17          	auipc	s8,0x21
     a80:	e28c0c13          	addi	s8,s8,-472 # 218a4 <__malloc_current_mallinfo>
     a84:	000c2703          	lw	a4,0(s8)
     a88:	00ea8733          	add	a4,s5,a4
     a8c:	00ec2023          	sw	a4,0(s8)
     a90:	000ca683          	lw	a3,0(s9)
     a94:	fff00793          	li	a5,-1
     a98:	14f68863          	beq	a3,a5,be8 <_malloc_r+0x704>
     a9c:	414b87b3          	sub	a5,s7,s4
     aa0:	00e787b3          	add	a5,a5,a4
     aa4:	00fc2023          	sw	a5,0(s8)
     aa8:	007bfc93          	andi	s9,s7,7
     aac:	0c0c8c63          	beqz	s9,b84 <_malloc_r+0x6a0>
     ab0:	00001737          	lui	a4,0x1
     ab4:	419b8bb3          	sub	s7,s7,s9
     ab8:	00870593          	addi	a1,a4,8 # 1008 <_vfprintf_r+0x58>
     abc:	008b8b93          	addi	s7,s7,8
     ac0:	419585b3          	sub	a1,a1,s9
     ac4:	015b8ab3          	add	s5,s7,s5
     ac8:	415585b3          	sub	a1,a1,s5
     acc:	fff70713          	addi	a4,a4,-1
     ad0:	00e5fa33          	and	s4,a1,a4
     ad4:	000a0593          	mv	a1,s4
     ad8:	00090513          	mv	a0,s2
     adc:	47c000ef          	jal	ra,f58 <_sbrk_r>
     ae0:	fff00793          	li	a5,-1
     ae4:	14f50863          	beq	a0,a5,c34 <_malloc_r+0x750>
     ae8:	41750533          	sub	a0,a0,s7
     aec:	01450ab3          	add	s5,a0,s4
     af0:	000c2703          	lw	a4,0(s8)
     af4:	0179a423          	sw	s7,8(s3)
     af8:	001ae793          	ori	a5,s5,1
     afc:	00ea05b3          	add	a1,s4,a4
     b00:	00bc2023          	sw	a1,0(s8)
     b04:	00fba223          	sw	a5,4(s7)
     b08:	d13402e3          	beq	s0,s3,80c <_malloc_r+0x328>
     b0c:	00f00693          	li	a3,15
     b10:	0f66f063          	bgeu	a3,s6,bf0 <_malloc_r+0x70c>
     b14:	00442703          	lw	a4,4(s0)
     b18:	ff4b0793          	addi	a5,s6,-12
     b1c:	ff87f793          	andi	a5,a5,-8
     b20:	00177713          	andi	a4,a4,1
     b24:	00f76733          	or	a4,a4,a5
     b28:	00e42223          	sw	a4,4(s0)
     b2c:	00500613          	li	a2,5
     b30:	00f40733          	add	a4,s0,a5
     b34:	00c72223          	sw	a2,4(a4)
     b38:	00c72423          	sw	a2,8(a4)
     b3c:	00f6e663          	bltu	a3,a5,b48 <_malloc_r+0x664>
     b40:	004ba783          	lw	a5,4(s7)
     b44:	cc9ff06f          	j	80c <_malloc_r+0x328>
     b48:	00840593          	addi	a1,s0,8
     b4c:	00090513          	mv	a0,s2
     b50:	09d050ef          	jal	ra,63ec <_free_r>
     b54:	0089ab83          	lw	s7,8(s3)
     b58:	000c2583          	lw	a1,0(s8)
     b5c:	004ba783          	lw	a5,4(s7)
     b60:	cadff06f          	j	80c <_malloc_r+0x328>
     b64:	010a8a93          	addi	s5,s5,16
     b68:	c55ff06f          	j	7bc <_malloc_r+0x2d8>
     b6c:	4026d693          	srai	a3,a3,0x2
     b70:	00100793          	li	a5,1
     b74:	00d797b3          	sll	a5,a5,a3
     b78:	00f56533          	or	a0,a0,a5
     b7c:	00a9a223          	sw	a0,4(s3)
     b80:	d55ff06f          	j	8d4 <_malloc_r+0x3f0>
     b84:	015b85b3          	add	a1,s7,s5
     b88:	40b005b3          	neg	a1,a1
     b8c:	01459593          	slli	a1,a1,0x14
     b90:	0145da13          	srli	s4,a1,0x14
     b94:	000a0593          	mv	a1,s4
     b98:	00090513          	mv	a0,s2
     b9c:	3bc000ef          	jal	ra,f58 <_sbrk_r>
     ba0:	fff00793          	li	a5,-1
     ba4:	f4f512e3          	bne	a0,a5,ae8 <_malloc_r+0x604>
     ba8:	00000a13          	li	s4,0
     bac:	f45ff06f          	j	af0 <_malloc_r+0x60c>
     bb0:	05400693          	li	a3,84
     bb4:	04e6e463          	bltu	a3,a4,bfc <_malloc_r+0x718>
     bb8:	00c7d713          	srli	a4,a5,0xc
     bbc:	06f70613          	addi	a2,a4,111
     bc0:	06e70693          	addi	a3,a4,110
     bc4:	00361613          	slli	a2,a2,0x3
     bc8:	ce1ff06f          	j	8a8 <_malloc_r+0x3c4>
     bcc:	15400713          	li	a4,340
     bd0:	04f76463          	bltu	a4,a5,c18 <_malloc_r+0x734>
     bd4:	00f4d793          	srli	a5,s1,0xf
     bd8:	07878593          	addi	a1,a5,120
     bdc:	07778513          	addi	a0,a5,119
     be0:	00359693          	slli	a3,a1,0x3
     be4:	a11ff06f          	j	5f4 <_malloc_r+0x110>
     be8:	017ca023          	sw	s7,0(s9)
     bec:	ebdff06f          	j	aa8 <_malloc_r+0x5c4>
     bf0:	00100793          	li	a5,1
     bf4:	00fba223          	sw	a5,4(s7)
     bf8:	e11ff06f          	j	a08 <_malloc_r+0x524>
     bfc:	15400693          	li	a3,340
     c00:	04e6e463          	bltu	a3,a4,c48 <_malloc_r+0x764>
     c04:	00f7d713          	srli	a4,a5,0xf
     c08:	07870613          	addi	a2,a4,120
     c0c:	07770693          	addi	a3,a4,119
     c10:	00361613          	slli	a2,a2,0x3
     c14:	c95ff06f          	j	8a8 <_malloc_r+0x3c4>
     c18:	55400713          	li	a4,1364
     c1c:	04f76463          	bltu	a4,a5,c64 <_malloc_r+0x780>
     c20:	0124d793          	srli	a5,s1,0x12
     c24:	07d78593          	addi	a1,a5,125
     c28:	07c78513          	addi	a0,a5,124
     c2c:	00359693          	slli	a3,a1,0x3
     c30:	9c5ff06f          	j	5f4 <_malloc_r+0x110>
     c34:	ff8c8c93          	addi	s9,s9,-8
     c38:	019a8ab3          	add	s5,s5,s9
     c3c:	417a8ab3          	sub	s5,s5,s7
     c40:	00000a13          	li	s4,0
     c44:	eadff06f          	j	af0 <_malloc_r+0x60c>
     c48:	55400693          	li	a3,1364
     c4c:	02e6e463          	bltu	a3,a4,c74 <_malloc_r+0x790>
     c50:	0127d713          	srli	a4,a5,0x12
     c54:	07d70613          	addi	a2,a4,125
     c58:	07c70693          	addi	a3,a4,124
     c5c:	00361613          	slli	a2,a2,0x3
     c60:	c49ff06f          	j	8a8 <_malloc_r+0x3c4>
     c64:	3f800693          	li	a3,1016
     c68:	07f00593          	li	a1,127
     c6c:	07e00513          	li	a0,126
     c70:	985ff06f          	j	5f4 <_malloc_r+0x110>
     c74:	3f800613          	li	a2,1016
     c78:	07e00693          	li	a3,126
     c7c:	c2dff06f          	j	8a8 <_malloc_r+0x3c4>
     c80:	0049a783          	lw	a5,4(s3)
     c84:	dcdff06f          	j	a50 <_malloc_r+0x56c>

00000c88 <__malloc_lock>:
     c88:	00021517          	auipc	a0,0x21
     c8c:	bfc50513          	addi	a0,a0,-1028 # 21884 <__lock___malloc_recursive_mutex>
     c90:	0d10606f          	j	7560 <__retarget_lock_acquire_recursive>

00000c94 <__malloc_unlock>:
     c94:	00021517          	auipc	a0,0x21
     c98:	bf050513          	addi	a0,a0,-1040 # 21884 <__lock___malloc_recursive_mutex>
     c9c:	0dd0606f          	j	7578 <__retarget_lock_release_recursive>

00000ca0 <_printf_r>:
     ca0:	fc010113          	addi	sp,sp,-64
     ca4:	02c12423          	sw	a2,40(sp)
     ca8:	02d12623          	sw	a3,44(sp)
     cac:	02e12823          	sw	a4,48(sp)
     cb0:	02f12a23          	sw	a5,52(sp)
     cb4:	03012c23          	sw	a6,56(sp)
     cb8:	03112e23          	sw	a7,60(sp)
     cbc:	00058613          	mv	a2,a1
     cc0:	00852583          	lw	a1,8(a0)
     cc4:	02810693          	addi	a3,sp,40
     cc8:	00112e23          	sw	ra,28(sp)
     ccc:	00d12623          	sw	a3,12(sp)
     cd0:	2e0000ef          	jal	ra,fb0 <_vfprintf_r>
     cd4:	01c12083          	lw	ra,28(sp)
     cd8:	04010113          	addi	sp,sp,64
     cdc:	00008067          	ret

00000ce0 <printf>:
     ce0:	fc010113          	addi	sp,sp,-64
     ce4:	02c12423          	sw	a2,40(sp)
     ce8:	02d12623          	sw	a3,44(sp)
     cec:	0001f317          	auipc	t1,0x1f
     cf0:	39c32303          	lw	t1,924(t1) # 20088 <_impure_ptr>
     cf4:	02b12223          	sw	a1,36(sp)
     cf8:	02e12823          	sw	a4,48(sp)
     cfc:	02f12a23          	sw	a5,52(sp)
     d00:	03012c23          	sw	a6,56(sp)
     d04:	03112e23          	sw	a7,60(sp)
     d08:	00832583          	lw	a1,8(t1)
     d0c:	02410693          	addi	a3,sp,36
     d10:	00050613          	mv	a2,a0
     d14:	00030513          	mv	a0,t1
     d18:	00112e23          	sw	ra,28(sp)
     d1c:	00d12623          	sw	a3,12(sp)
     d20:	290000ef          	jal	ra,fb0 <_vfprintf_r>
     d24:	01c12083          	lw	ra,28(sp)
     d28:	04010113          	addi	sp,sp,64
     d2c:	00008067          	ret

00000d30 <_putchar_r>:
     d30:	00852603          	lw	a2,8(a0)
     d34:	01c0006f          	j	d50 <_putc_r>

00000d38 <putchar>:
     d38:	0001f797          	auipc	a5,0x1f
     d3c:	3507a783          	lw	a5,848(a5) # 20088 <_impure_ptr>
     d40:	0087a603          	lw	a2,8(a5)
     d44:	00050593          	mv	a1,a0
     d48:	00078513          	mv	a0,a5
     d4c:	0040006f          	j	d50 <_putc_r>

00000d50 <_putc_r>:
     d50:	ff010113          	addi	sp,sp,-16
     d54:	00812423          	sw	s0,8(sp)
     d58:	00912223          	sw	s1,4(sp)
     d5c:	01212023          	sw	s2,0(sp)
     d60:	00112623          	sw	ra,12(sp)
     d64:	00050913          	mv	s2,a0
     d68:	00058493          	mv	s1,a1
     d6c:	00060413          	mv	s0,a2
     d70:	00050663          	beqz	a0,d7c <_putc_r+0x2c>
     d74:	03852783          	lw	a5,56(a0)
     d78:	08078463          	beqz	a5,e00 <_putc_r+0xb0>
     d7c:	06442783          	lw	a5,100(s0)
     d80:	0017f793          	andi	a5,a5,1
     d84:	00079863          	bnez	a5,d94 <_putc_r+0x44>
     d88:	00c45783          	lhu	a5,12(s0)
     d8c:	2007f793          	andi	a5,a5,512
     d90:	08078863          	beqz	a5,e20 <_putc_r+0xd0>
     d94:	00842783          	lw	a5,8(s0)
     d98:	fff78793          	addi	a5,a5,-1
     d9c:	00f42423          	sw	a5,8(s0)
     da0:	0007dc63          	bgez	a5,db8 <_putc_r+0x68>
     da4:	01842703          	lw	a4,24(s0)
     da8:	06e7c063          	blt	a5,a4,e08 <_putc_r+0xb8>
     dac:	0ff4f793          	zext.b	a5,s1
     db0:	00a00713          	li	a4,10
     db4:	04e78a63          	beq	a5,a4,e08 <_putc_r+0xb8>
     db8:	00042783          	lw	a5,0(s0)
     dbc:	0ff4f913          	zext.b	s2,s1
     dc0:	00178713          	addi	a4,a5,1
     dc4:	00e42023          	sw	a4,0(s0)
     dc8:	00978023          	sb	s1,0(a5)
     dcc:	06442783          	lw	a5,100(s0)
     dd0:	0017f793          	andi	a5,a5,1
     dd4:	00079863          	bnez	a5,de4 <_putc_r+0x94>
     dd8:	00c45783          	lhu	a5,12(s0)
     ddc:	2007f793          	andi	a5,a5,512
     de0:	04078663          	beqz	a5,e2c <_putc_r+0xdc>
     de4:	00c12083          	lw	ra,12(sp)
     de8:	00812403          	lw	s0,8(sp)
     dec:	00412483          	lw	s1,4(sp)
     df0:	00090513          	mv	a0,s2
     df4:	00012903          	lw	s2,0(sp)
     df8:	01010113          	addi	sp,sp,16
     dfc:	00008067          	ret
     e00:	110050ef          	jal	ra,5f10 <__sinit>
     e04:	f79ff06f          	j	d7c <_putc_r+0x2c>
     e08:	00090513          	mv	a0,s2
     e0c:	00040613          	mv	a2,s0
     e10:	00048593          	mv	a1,s1
     e14:	709020ef          	jal	ra,3d1c <__swbuf_r>
     e18:	00050913          	mv	s2,a0
     e1c:	fb1ff06f          	j	dcc <_putc_r+0x7c>
     e20:	05842503          	lw	a0,88(s0)
     e24:	73c060ef          	jal	ra,7560 <__retarget_lock_acquire_recursive>
     e28:	f6dff06f          	j	d94 <_putc_r+0x44>
     e2c:	05842503          	lw	a0,88(s0)
     e30:	748060ef          	jal	ra,7578 <__retarget_lock_release_recursive>
     e34:	00c12083          	lw	ra,12(sp)
     e38:	00812403          	lw	s0,8(sp)
     e3c:	00412483          	lw	s1,4(sp)
     e40:	00090513          	mv	a0,s2
     e44:	00012903          	lw	s2,0(sp)
     e48:	01010113          	addi	sp,sp,16
     e4c:	00008067          	ret

00000e50 <putc>:
     e50:	ff010113          	addi	sp,sp,-16
     e54:	00812423          	sw	s0,8(sp)
     e58:	00912223          	sw	s1,4(sp)
     e5c:	01212023          	sw	s2,0(sp)
     e60:	00112623          	sw	ra,12(sp)
     e64:	0001f917          	auipc	s2,0x1f
     e68:	22492903          	lw	s2,548(s2) # 20088 <_impure_ptr>
     e6c:	00050493          	mv	s1,a0
     e70:	00058413          	mv	s0,a1
     e74:	00090663          	beqz	s2,e80 <putc+0x30>
     e78:	03892783          	lw	a5,56(s2)
     e7c:	08078463          	beqz	a5,f04 <putc+0xb4>
     e80:	06442783          	lw	a5,100(s0)
     e84:	0017f793          	andi	a5,a5,1
     e88:	00079863          	bnez	a5,e98 <putc+0x48>
     e8c:	00c45783          	lhu	a5,12(s0)
     e90:	2007f793          	andi	a5,a5,512
     e94:	08078a63          	beqz	a5,f28 <putc+0xd8>
     e98:	00842783          	lw	a5,8(s0)
     e9c:	fff78793          	addi	a5,a5,-1
     ea0:	00f42423          	sw	a5,8(s0)
     ea4:	0007dc63          	bgez	a5,ebc <putc+0x6c>
     ea8:	01842703          	lw	a4,24(s0)
     eac:	06e7c263          	blt	a5,a4,f10 <putc+0xc0>
     eb0:	0ff4f793          	zext.b	a5,s1
     eb4:	00a00713          	li	a4,10
     eb8:	04e78c63          	beq	a5,a4,f10 <putc+0xc0>
     ebc:	00042783          	lw	a5,0(s0)
     ec0:	0ff4f913          	zext.b	s2,s1
     ec4:	00178713          	addi	a4,a5,1
     ec8:	00e42023          	sw	a4,0(s0)
     ecc:	00978023          	sb	s1,0(a5)
     ed0:	06442783          	lw	a5,100(s0)
     ed4:	0017f793          	andi	a5,a5,1
     ed8:	00079863          	bnez	a5,ee8 <putc+0x98>
     edc:	00c45783          	lhu	a5,12(s0)
     ee0:	2007f793          	andi	a5,a5,512
     ee4:	04078863          	beqz	a5,f34 <putc+0xe4>
     ee8:	00c12083          	lw	ra,12(sp)
     eec:	00812403          	lw	s0,8(sp)
     ef0:	00412483          	lw	s1,4(sp)
     ef4:	00090513          	mv	a0,s2
     ef8:	00012903          	lw	s2,0(sp)
     efc:	01010113          	addi	sp,sp,16
     f00:	00008067          	ret
     f04:	00090513          	mv	a0,s2
     f08:	008050ef          	jal	ra,5f10 <__sinit>
     f0c:	f75ff06f          	j	e80 <putc+0x30>
     f10:	00090513          	mv	a0,s2
     f14:	00040613          	mv	a2,s0
     f18:	00048593          	mv	a1,s1
     f1c:	601020ef          	jal	ra,3d1c <__swbuf_r>
     f20:	00050913          	mv	s2,a0
     f24:	fadff06f          	j	ed0 <putc+0x80>
     f28:	05842503          	lw	a0,88(s0)
     f2c:	634060ef          	jal	ra,7560 <__retarget_lock_acquire_recursive>
     f30:	f69ff06f          	j	e98 <putc+0x48>
     f34:	05842503          	lw	a0,88(s0)
     f38:	640060ef          	jal	ra,7578 <__retarget_lock_release_recursive>
     f3c:	00c12083          	lw	ra,12(sp)
     f40:	00812403          	lw	s0,8(sp)
     f44:	00412483          	lw	s1,4(sp)
     f48:	00090513          	mv	a0,s2
     f4c:	00012903          	lw	s2,0(sp)
     f50:	01010113          	addi	sp,sp,16
     f54:	00008067          	ret

00000f58 <_sbrk_r>:
     f58:	ff010113          	addi	sp,sp,-16
     f5c:	00812423          	sw	s0,8(sp)
     f60:	00050413          	mv	s0,a0
     f64:	00058513          	mv	a0,a1
     f68:	00021797          	auipc	a5,0x21
     f6c:	9207a823          	sw	zero,-1744(a5) # 21898 <errno>
     f70:	00112623          	sw	ra,12(sp)
     f74:	2010f0ef          	jal	ra,10974 <_sbrk>
     f78:	fff00793          	li	a5,-1
     f7c:	00f50a63          	beq	a0,a5,f90 <_sbrk_r+0x38>
     f80:	00c12083          	lw	ra,12(sp)
     f84:	00812403          	lw	s0,8(sp)
     f88:	01010113          	addi	sp,sp,16
     f8c:	00008067          	ret
     f90:	00021797          	auipc	a5,0x21
     f94:	9087a783          	lw	a5,-1784(a5) # 21898 <errno>
     f98:	fe0784e3          	beqz	a5,f80 <_sbrk_r+0x28>
     f9c:	00c12083          	lw	ra,12(sp)
     fa0:	00f42023          	sw	a5,0(s0)
     fa4:	00812403          	lw	s0,8(sp)
     fa8:	01010113          	addi	sp,sp,16
     fac:	00008067          	ret

00000fb0 <_vfprintf_r>:
     fb0:	e7010113          	addi	sp,sp,-400
     fb4:	18112623          	sw	ra,396(sp)
     fb8:	00b12423          	sw	a1,8(sp)
     fbc:	00c12623          	sw	a2,12(sp)
     fc0:	00d12a23          	sw	a3,20(sp)
     fc4:	17312e23          	sw	s3,380(sp)
     fc8:	18812423          	sw	s0,392(sp)
     fcc:	18912223          	sw	s1,388(sp)
     fd0:	19212023          	sw	s2,384(sp)
     fd4:	17412c23          	sw	s4,376(sp)
     fd8:	17512a23          	sw	s5,372(sp)
     fdc:	17612823          	sw	s6,368(sp)
     fe0:	17712623          	sw	s7,364(sp)
     fe4:	17812423          	sw	s8,360(sp)
     fe8:	17912223          	sw	s9,356(sp)
     fec:	17a12023          	sw	s10,352(sp)
     ff0:	15b12e23          	sw	s11,348(sp)
     ff4:	00050993          	mv	s3,a0
     ff8:	061050ef          	jal	ra,6858 <_localeconv_r>
     ffc:	00052783          	lw	a5,0(a0)
    1000:	00078513          	mv	a0,a5
    1004:	02f12c23          	sw	a5,56(sp)
    1008:	69d080ef          	jal	ra,9ea4 <strlen>
    100c:	00050713          	mv	a4,a0
    1010:	00800613          	li	a2,8
    1014:	00000593          	li	a1,0
    1018:	09010513          	addi	a0,sp,144
    101c:	02e12a23          	sw	a4,52(sp)
    1020:	314070ef          	jal	ra,8334 <memset>
    1024:	00c12783          	lw	a5,12(sp)
    1028:	00098663          	beqz	s3,1034 <_vfprintf_r+0x84>
    102c:	0389a703          	lw	a4,56(s3)
    1030:	72070063          	beqz	a4,1750 <_vfprintf_r+0x7a0>
    1034:	00812703          	lw	a4,8(sp)
    1038:	06472683          	lw	a3,100(a4)
    103c:	00c71703          	lh	a4,12(a4)
    1040:	0016f693          	andi	a3,a3,1
    1044:	00069863          	bnez	a3,1054 <_vfprintf_r+0xa4>
    1048:	20077693          	andi	a3,a4,512
    104c:	00069463          	bnez	a3,1054 <_vfprintf_r+0xa4>
    1050:	3700106f          	j	23c0 <_vfprintf_r+0x1410>
    1054:	01271693          	slli	a3,a4,0x12
    1058:	0206c863          	bltz	a3,1088 <_vfprintf_r+0xd8>
    105c:	00812583          	lw	a1,8(sp)
    1060:	00002637          	lui	a2,0x2
    1064:	00c76733          	or	a4,a4,a2
    1068:	0645a683          	lw	a3,100(a1)
    106c:	ffffe637          	lui	a2,0xffffe
    1070:	01071713          	slli	a4,a4,0x10
    1074:	fff60613          	addi	a2,a2,-1 # ffffdfff <_stack+0xfffbdfff>
    1078:	41075713          	srai	a4,a4,0x10
    107c:	00c6f6b3          	and	a3,a3,a2
    1080:	00e59623          	sh	a4,12(a1)
    1084:	06d5a223          	sw	a3,100(a1)
    1088:	00877693          	andi	a3,a4,8
    108c:	26068863          	beqz	a3,12fc <_vfprintf_r+0x34c>
    1090:	00812683          	lw	a3,8(sp)
    1094:	0106a683          	lw	a3,16(a3)
    1098:	26068263          	beqz	a3,12fc <_vfprintf_r+0x34c>
    109c:	01a77693          	andi	a3,a4,26
    10a0:	00a00613          	li	a2,10
    10a4:	28c68463          	beq	a3,a2,132c <_vfprintf_r+0x37c>
    10a8:	0ac10713          	addi	a4,sp,172
    10ac:	0ae12023          	sw	a4,160(sp)
    10b0:	0a012423          	sw	zero,168(sp)
    10b4:	0a012223          	sw	zero,164(sp)
    10b8:	02012023          	sw	zero,32(sp)
    10bc:	02012623          	sw	zero,44(sp)
    10c0:	02012823          	sw	zero,48(sp)
    10c4:	00070413          	mv	s0,a4
    10c8:	02012e23          	sw	zero,60(sp)
    10cc:	04012223          	sw	zero,68(sp)
    10d0:	04012023          	sw	zero,64(sp)
    10d4:	04012423          	sw	zero,72(sp)
    10d8:	04012623          	sw	zero,76(sp)
    10dc:	00012623          	sw	zero,12(sp)
    10e0:	00020d17          	auipc	s10,0x20
    10e4:	5f8d0d13          	addi	s10,s10,1528 # 216d8 <__global_locale>
    10e8:	02500b13          	li	s6,37
    10ec:	00078b93          	mv	s7,a5
    10f0:	000b8493          	mv	s1,s7
    10f4:	0e4d2903          	lw	s2,228(s10)
    10f8:	434060ef          	jal	ra,752c <__locale_mb_cur_max>
    10fc:	00050693          	mv	a3,a0
    1100:	09010713          	addi	a4,sp,144
    1104:	00048613          	mv	a2,s1
    1108:	08010593          	addi	a1,sp,128
    110c:	00098513          	mv	a0,s3
    1110:	000900e7          	jalr	s2
    1114:	2a050c63          	beqz	a0,13cc <_vfprintf_r+0x41c>
    1118:	28054c63          	bltz	a0,13b0 <_vfprintf_r+0x400>
    111c:	08012783          	lw	a5,128(sp)
    1120:	01678663          	beq	a5,s6,112c <_vfprintf_r+0x17c>
    1124:	00a484b3          	add	s1,s1,a0
    1128:	fcdff06f          	j	10f4 <_vfprintf_r+0x144>
    112c:	00050c13          	mv	s8,a0
    1130:	41748cb3          	sub	s9,s1,s7
    1134:	2b749263          	bne	s1,s7,13d8 <_vfprintf_r+0x428>
    1138:	fff00313          	li	t1,-1
    113c:	0014ce03          	lbu	t3,1(s1)
    1140:	06010ba3          	sb	zero,119(sp)
    1144:	00148493          	addi	s1,s1,1
    1148:	00000913          	li	s2,0
    114c:	00000a93          	li	s5,0
    1150:	05a00c13          	li	s8,90
    1154:	00030a13          	mv	s4,t1
    1158:	00148493          	addi	s1,s1,1
    115c:	fe0e0793          	addi	a5,t3,-32
    1160:	04fc6a63          	bltu	s8,a5,11b4 <_vfprintf_r+0x204>
    1164:	0001f717          	auipc	a4,0x1f
    1168:	fe470713          	addi	a4,a4,-28 # 20148 <environ+0xbc>
    116c:	00279793          	slli	a5,a5,0x2
    1170:	00e787b3          	add	a5,a5,a4
    1174:	0007a783          	lw	a5,0(a5)
    1178:	00e787b3          	add	a5,a5,a4
    117c:	00078067          	jr	a5
    1180:	00000913          	li	s2,0
    1184:	fd0e0693          	addi	a3,t3,-48
    1188:	00900713          	li	a4,9
    118c:	0004ce03          	lbu	t3,0(s1)
    1190:	00291793          	slli	a5,s2,0x2
    1194:	012787b3          	add	a5,a5,s2
    1198:	00179793          	slli	a5,a5,0x1
    119c:	00f68933          	add	s2,a3,a5
    11a0:	fd0e0693          	addi	a3,t3,-48
    11a4:	00148493          	addi	s1,s1,1
    11a8:	fed772e3          	bgeu	a4,a3,118c <_vfprintf_r+0x1dc>
    11ac:	fe0e0793          	addi	a5,t3,-32
    11b0:	fafc7ae3          	bgeu	s8,a5,1164 <_vfprintf_r+0x1b4>
    11b4:	260e0063          	beqz	t3,1414 <_vfprintf_r+0x464>
    11b8:	0fc10623          	sb	t3,236(sp)
    11bc:	06010ba3          	sb	zero,119(sp)
    11c0:	00100c13          	li	s8,1
    11c4:	00000613          	li	a2,0
    11c8:	00012823          	sw	zero,16(sp)
    11cc:	00100c93          	li	s9,1
    11d0:	00000313          	li	t1,0
    11d4:	02012423          	sw	zero,40(sp)
    11d8:	02012223          	sw	zero,36(sp)
    11dc:	00012c23          	sw	zero,24(sp)
    11e0:	0ec10b93          	addi	s7,sp,236
    11e4:	002af293          	andi	t0,s5,2
    11e8:	00028463          	beqz	t0,11f0 <_vfprintf_r+0x240>
    11ec:	002c0c13          	addi	s8,s8,2
    11f0:	084afd93          	andi	s11,s5,132
    11f4:	000d9663          	bnez	s11,1200 <_vfprintf_r+0x250>
    11f8:	41890733          	sub	a4,s2,s8
    11fc:	4ce040e3          	bgtz	a4,1ebc <_vfprintf_r+0xf0c>
    1200:	0a812a03          	lw	s4,168(sp)
    1204:	02060a63          	beqz	a2,1238 <_vfprintf_r+0x288>
    1208:	0a412603          	lw	a2,164(sp)
    120c:	07710593          	addi	a1,sp,119
    1210:	001a0a13          	addi	s4,s4,1
    1214:	00160613          	addi	a2,a2,1
    1218:	00100793          	li	a5,1
    121c:	00b42023          	sw	a1,0(s0)
    1220:	00f42223          	sw	a5,4(s0)
    1224:	0b412423          	sw	s4,168(sp)
    1228:	0ac12223          	sw	a2,164(sp)
    122c:	00700593          	li	a1,7
    1230:	00840413          	addi	s0,s0,8
    1234:	3ac5cc63          	blt	a1,a2,15ec <_vfprintf_r+0x63c>
    1238:	02028a63          	beqz	t0,126c <_vfprintf_r+0x2bc>
    123c:	0a412603          	lw	a2,164(sp)
    1240:	07810593          	addi	a1,sp,120
    1244:	00b42023          	sw	a1,0(s0)
    1248:	002a0a13          	addi	s4,s4,2
    124c:	00200593          	li	a1,2
    1250:	00160613          	addi	a2,a2,1
    1254:	00b42223          	sw	a1,4(s0)
    1258:	0b412423          	sw	s4,168(sp)
    125c:	0ac12223          	sw	a2,164(sp)
    1260:	00700593          	li	a1,7
    1264:	00840413          	addi	s0,s0,8
    1268:	52c5cae3          	blt	a1,a2,1f9c <_vfprintf_r+0xfec>
    126c:	08000613          	li	a2,128
    1270:	28cd80e3          	beq	s11,a2,1cf0 <_vfprintf_r+0xd40>
    1274:	41930db3          	sub	s11,t1,s9
    1278:	37b046e3          	bgtz	s11,1de4 <_vfprintf_r+0xe34>
    127c:	100af613          	andi	a2,s5,256
    1280:	06061ee3          	bnez	a2,1afc <_vfprintf_r+0xb4c>
    1284:	0a412783          	lw	a5,164(sp)
    1288:	014c8733          	add	a4,s9,s4
    128c:	01742023          	sw	s7,0(s0)
    1290:	00178793          	addi	a5,a5,1
    1294:	01942223          	sw	s9,4(s0)
    1298:	0ae12423          	sw	a4,168(sp)
    129c:	0af12223          	sw	a5,164(sp)
    12a0:	00700693          	li	a3,7
    12a4:	46f6c863          	blt	a3,a5,1714 <_vfprintf_r+0x764>
    12a8:	00840413          	addi	s0,s0,8
    12ac:	004af813          	andi	a6,s5,4
    12b0:	00080663          	beqz	a6,12bc <_vfprintf_r+0x30c>
    12b4:	41890cb3          	sub	s9,s2,s8
    12b8:	51904ae3          	bgtz	s9,1fcc <_vfprintf_r+0x101c>
    12bc:	00090e93          	mv	t4,s2
    12c0:	01895463          	bge	s2,s8,12c8 <_vfprintf_r+0x318>
    12c4:	000c0e93          	mv	t4,s8
    12c8:	00c12783          	lw	a5,12(sp)
    12cc:	01d787b3          	add	a5,a5,t4
    12d0:	00f12623          	sw	a5,12(sp)
    12d4:	16071c63          	bnez	a4,144c <_vfprintf_r+0x49c>
    12d8:	01012783          	lw	a5,16(sp)
    12dc:	0a012223          	sw	zero,164(sp)
    12e0:	00078863          	beqz	a5,12f0 <_vfprintf_r+0x340>
    12e4:	01012583          	lw	a1,16(sp)
    12e8:	00098513          	mv	a0,s3
    12ec:	100050ef          	jal	ra,63ec <_free_r>
    12f0:	0ac10413          	addi	s0,sp,172
    12f4:	00048b93          	mv	s7,s1
    12f8:	df9ff06f          	j	10f0 <_vfprintf_r+0x140>
    12fc:	00812403          	lw	s0,8(sp)
    1300:	00098513          	mv	a0,s3
    1304:	00f12623          	sw	a5,12(sp)
    1308:	00040593          	mv	a1,s0
    130c:	4fd020ef          	jal	ra,4008 <__swsetup_r>
    1310:	00050463          	beqz	a0,1318 <_vfprintf_r+0x368>
    1314:	5580206f          	j	386c <_vfprintf_r+0x28bc>
    1318:	00c41703          	lh	a4,12(s0)
    131c:	00a00613          	li	a2,10
    1320:	00c12783          	lw	a5,12(sp)
    1324:	01a77693          	andi	a3,a4,26
    1328:	d8c690e3          	bne	a3,a2,10a8 <_vfprintf_r+0xf8>
    132c:	00812603          	lw	a2,8(sp)
    1330:	00e61683          	lh	a3,14(a2)
    1334:	d606cae3          	bltz	a3,10a8 <_vfprintf_r+0xf8>
    1338:	06462683          	lw	a3,100(a2)
    133c:	0016f693          	andi	a3,a3,1
    1340:	00069863          	bnez	a3,1350 <_vfprintf_r+0x3a0>
    1344:	20077713          	andi	a4,a4,512
    1348:	00071463          	bnez	a4,1350 <_vfprintf_r+0x3a0>
    134c:	3810106f          	j	2ecc <_vfprintf_r+0x1f1c>
    1350:	01412683          	lw	a3,20(sp)
    1354:	00812583          	lw	a1,8(sp)
    1358:	00078613          	mv	a2,a5
    135c:	00098513          	mv	a0,s3
    1360:	0c5020ef          	jal	ra,3c24 <__sbprintf>
    1364:	00a12623          	sw	a0,12(sp)
    1368:	1300006f          	j	1498 <_vfprintf_r+0x4e8>
    136c:	00098513          	mv	a0,s3
    1370:	4e8050ef          	jal	ra,6858 <_localeconv_r>
    1374:	00452783          	lw	a5,4(a0)
    1378:	00078513          	mv	a0,a5
    137c:	04f12623          	sw	a5,76(sp)
    1380:	325080ef          	jal	ra,9ea4 <strlen>
    1384:	00050793          	mv	a5,a0
    1388:	00098513          	mv	a0,s3
    138c:	00078c93          	mv	s9,a5
    1390:	04f12423          	sw	a5,72(sp)
    1394:	4c4050ef          	jal	ra,6858 <_localeconv_r>
    1398:	00852703          	lw	a4,8(a0)
    139c:	04e12023          	sw	a4,64(sp)
    13a0:	000c8463          	beqz	s9,13a8 <_vfprintf_r+0x3f8>
    13a4:	1ac0106f          	j	2550 <_vfprintf_r+0x15a0>
    13a8:	0004ce03          	lbu	t3,0(s1)
    13ac:	dadff06f          	j	1158 <_vfprintf_r+0x1a8>
    13b0:	00800613          	li	a2,8
    13b4:	00000593          	li	a1,0
    13b8:	09010513          	addi	a0,sp,144
    13bc:	779060ef          	jal	ra,8334 <memset>
    13c0:	00100513          	li	a0,1
    13c4:	00a484b3          	add	s1,s1,a0
    13c8:	d2dff06f          	j	10f4 <_vfprintf_r+0x144>
    13cc:	00050c13          	mv	s8,a0
    13d0:	41748cb3          	sub	s9,s1,s7
    13d4:	05748063          	beq	s1,s7,1414 <_vfprintf_r+0x464>
    13d8:	0a812a03          	lw	s4,168(sp)
    13dc:	0a412683          	lw	a3,164(sp)
    13e0:	01742023          	sw	s7,0(s0)
    13e4:	019a0733          	add	a4,s4,s9
    13e8:	00168693          	addi	a3,a3,1
    13ec:	01942223          	sw	s9,4(s0)
    13f0:	0ae12423          	sw	a4,168(sp)
    13f4:	0ad12223          	sw	a3,164(sp)
    13f8:	00700713          	li	a4,7
    13fc:	00840413          	addi	s0,s0,8
    1400:	02d74863          	blt	a4,a3,1430 <_vfprintf_r+0x480>
    1404:	00c12783          	lw	a5,12(sp)
    1408:	019787b3          	add	a5,a5,s9
    140c:	00f12623          	sw	a5,12(sp)
    1410:	d20c14e3          	bnez	s8,1138 <_vfprintf_r+0x188>
    1414:	0a812783          	lw	a5,168(sp)
    1418:	00078463          	beqz	a5,1420 <_vfprintf_r+0x470>
    141c:	2590106f          	j	2e74 <_vfprintf_r+0x1ec4>
    1420:	00812783          	lw	a5,8(sp)
    1424:	0a012223          	sw	zero,164(sp)
    1428:	00c79783          	lh	a5,12(a5)
    142c:	0500006f          	j	147c <_vfprintf_r+0x4cc>
    1430:	00812583          	lw	a1,8(sp)
    1434:	0a010613          	addi	a2,sp,160
    1438:	00098513          	mv	a0,s3
    143c:	735080ef          	jal	ra,a370 <__sprint_r>
    1440:	02051a63          	bnez	a0,1474 <_vfprintf_r+0x4c4>
    1444:	0ac10413          	addi	s0,sp,172
    1448:	fbdff06f          	j	1404 <_vfprintf_r+0x454>
    144c:	00812583          	lw	a1,8(sp)
    1450:	0a010613          	addi	a2,sp,160
    1454:	00098513          	mv	a0,s3
    1458:	719080ef          	jal	ra,a370 <__sprint_r>
    145c:	e6050ee3          	beqz	a0,12d8 <_vfprintf_r+0x328>
    1460:	01012f03          	lw	t5,16(sp)
    1464:	000f0863          	beqz	t5,1474 <_vfprintf_r+0x4c4>
    1468:	000f0593          	mv	a1,t5
    146c:	00098513          	mv	a0,s3
    1470:	77d040ef          	jal	ra,63ec <_free_r>
    1474:	00812783          	lw	a5,8(sp)
    1478:	00c79783          	lh	a5,12(a5)
    147c:	00812703          	lw	a4,8(sp)
    1480:	06472703          	lw	a4,100(a4)
    1484:	00177713          	andi	a4,a4,1
    1488:	2a070663          	beqz	a4,1734 <_vfprintf_r+0x784>
    148c:	0407f793          	andi	a5,a5,64
    1490:	00078463          	beqz	a5,1498 <_vfprintf_r+0x4e8>
    1494:	4040206f          	j	3898 <_vfprintf_r+0x28e8>
    1498:	18c12083          	lw	ra,396(sp)
    149c:	18812403          	lw	s0,392(sp)
    14a0:	00c12503          	lw	a0,12(sp)
    14a4:	18412483          	lw	s1,388(sp)
    14a8:	18012903          	lw	s2,384(sp)
    14ac:	17c12983          	lw	s3,380(sp)
    14b0:	17812a03          	lw	s4,376(sp)
    14b4:	17412a83          	lw	s5,372(sp)
    14b8:	17012b03          	lw	s6,368(sp)
    14bc:	16c12b83          	lw	s7,364(sp)
    14c0:	16812c03          	lw	s8,360(sp)
    14c4:	16412c83          	lw	s9,356(sp)
    14c8:	16012d03          	lw	s10,352(sp)
    14cc:	15c12d83          	lw	s11,348(sp)
    14d0:	19010113          	addi	sp,sp,400
    14d4:	00008067          	ret
    14d8:	008af713          	andi	a4,s5,8
    14dc:	000a0313          	mv	t1,s4
    14e0:	00070463          	beqz	a4,14e8 <_vfprintf_r+0x538>
    14e4:	0180106f          	j	24fc <_vfprintf_r+0x154c>
    14e8:	01412783          	lw	a5,20(sp)
    14ec:	00778a13          	addi	s4,a5,7
    14f0:	ff8a7a13          	andi	s4,s4,-8
    14f4:	000a2783          	lw	a5,0(s4)
    14f8:	02f12623          	sw	a5,44(sp)
    14fc:	004a2783          	lw	a5,4(s4)
    1500:	02f12823          	sw	a5,48(sp)
    1504:	008a0793          	addi	a5,s4,8
    1508:	00f12a23          	sw	a5,20(sp)
    150c:	03012a03          	lw	s4,48(sp)
    1510:	0001f697          	auipc	a3,0x1f
    1514:	b0068693          	addi	a3,a3,-1280 # 20010 <__DTOR_END__>
    1518:	0006ac03          	lw	s8,0(a3)
    151c:	001a1713          	slli	a4,s4,0x1
    1520:	00175d93          	srli	s11,a4,0x1
    1524:	0046ac83          	lw	s9,4(a3)
    1528:	02c12703          	lw	a4,44(sp)
    152c:	000d8593          	mv	a1,s11
    1530:	000c0613          	mv	a2,s8
    1534:	00070513          	mv	a0,a4
    1538:	000c8693          	mv	a3,s9
    153c:	00612c23          	sw	t1,24(sp)
    1540:	01c12823          	sw	t3,16(sp)
    1544:	2890e0ef          	jal	ra,ffcc <__unorddf2>
    1548:	01012e03          	lw	t3,16(sp)
    154c:	01812303          	lw	t1,24(sp)
    1550:	00050463          	beqz	a0,1558 <_vfprintf_r+0x5a8>
    1554:	38c0106f          	j	28e0 <_vfprintf_r+0x1930>
    1558:	02c12683          	lw	a3,44(sp)
    155c:	000d8593          	mv	a1,s11
    1560:	000c0613          	mv	a2,s8
    1564:	00068513          	mv	a0,a3
    1568:	000c8693          	mv	a3,s9
    156c:	1290d0ef          	jal	ra,ee94 <__ledf2>
    1570:	01012e03          	lw	t3,16(sp)
    1574:	01812303          	lw	t1,24(sp)
    1578:	00a04463          	bgtz	a0,1580 <_vfprintf_r+0x5d0>
    157c:	3640106f          	j	28e0 <_vfprintf_r+0x1930>
    1580:	02c12703          	lw	a4,44(sp)
    1584:	000a0593          	mv	a1,s4
    1588:	00000613          	li	a2,0
    158c:	00070513          	mv	a0,a4
    1590:	00000693          	li	a3,0
    1594:	1010d0ef          	jal	ra,ee94 <__ledf2>
    1598:	01012e03          	lw	t3,16(sp)
    159c:	00055463          	bgez	a0,15a4 <_vfprintf_r+0x5f4>
    15a0:	5850106f          	j	3324 <_vfprintf_r+0x2374>
    15a4:	07714603          	lbu	a2,119(sp)
    15a8:	04700713          	li	a4,71
    15ac:	0001fb97          	auipc	s7,0x1f
    15b0:	b58b8b93          	addi	s7,s7,-1192 # 20104 <environ+0x78>
    15b4:	01c75663          	bge	a4,t3,15c0 <_vfprintf_r+0x610>
    15b8:	0001fb97          	auipc	s7,0x1f
    15bc:	b50b8b93          	addi	s7,s7,-1200 # 20108 <environ+0x7c>
    15c0:	00012823          	sw	zero,16(sp)
    15c4:	02012423          	sw	zero,40(sp)
    15c8:	02012223          	sw	zero,36(sp)
    15cc:	00012c23          	sw	zero,24(sp)
    15d0:	f7fafa93          	andi	s5,s5,-129
    15d4:	00300c13          	li	s8,3
    15d8:	00300c93          	li	s9,3
    15dc:	00000313          	li	t1,0
    15e0:	c00602e3          	beqz	a2,11e4 <_vfprintf_r+0x234>
    15e4:	001c0c13          	addi	s8,s8,1
    15e8:	bfdff06f          	j	11e4 <_vfprintf_r+0x234>
    15ec:	00812583          	lw	a1,8(sp)
    15f0:	0a010613          	addi	a2,sp,160
    15f4:	00098513          	mv	a0,s3
    15f8:	04612c23          	sw	t1,88(sp)
    15fc:	05c12a23          	sw	t3,84(sp)
    1600:	04512823          	sw	t0,80(sp)
    1604:	56d080ef          	jal	ra,a370 <__sprint_r>
    1608:	e4051ce3          	bnez	a0,1460 <_vfprintf_r+0x4b0>
    160c:	0a812a03          	lw	s4,168(sp)
    1610:	05812303          	lw	t1,88(sp)
    1614:	05412e03          	lw	t3,84(sp)
    1618:	05012283          	lw	t0,80(sp)
    161c:	0ac10413          	addi	s0,sp,172
    1620:	c19ff06f          	j	1238 <_vfprintf_r+0x288>
    1624:	02012783          	lw	a5,32(sp)
    1628:	00100693          	li	a3,1
    162c:	00840d93          	addi	s11,s0,8
    1630:	001a0713          	addi	a4,s4,1
    1634:	3cf6dee3          	bge	a3,a5,2210 <_vfprintf_r+0x1260>
    1638:	0a412c83          	lw	s9,164(sp)
    163c:	00100693          	li	a3,1
    1640:	00d42223          	sw	a3,4(s0)
    1644:	001c8c93          	addi	s9,s9,1
    1648:	01742023          	sw	s7,0(s0)
    164c:	0ae12423          	sw	a4,168(sp)
    1650:	0b912223          	sw	s9,164(sp)
    1654:	00700693          	li	a3,7
    1658:	0196d463          	bge	a3,s9,1660 <_vfprintf_r+0x6b0>
    165c:	0e00106f          	j	273c <_vfprintf_r+0x178c>
    1660:	03412783          	lw	a5,52(sp)
    1664:	03812683          	lw	a3,56(sp)
    1668:	001c8c93          	addi	s9,s9,1
    166c:	00e78733          	add	a4,a5,a4
    1670:	00dda023          	sw	a3,0(s11)
    1674:	00fda223          	sw	a5,4(s11)
    1678:	0ae12423          	sw	a4,168(sp)
    167c:	0b912223          	sw	s9,164(sp)
    1680:	00700693          	li	a3,7
    1684:	008d8d93          	addi	s11,s11,8
    1688:	0196d463          	bge	a3,s9,1690 <_vfprintf_r+0x6e0>
    168c:	0d80106f          	j	2764 <_vfprintf_r+0x17b4>
    1690:	02c12603          	lw	a2,44(sp)
    1694:	03012683          	lw	a3,48(sp)
    1698:	00e12c23          	sw	a4,24(sp)
    169c:	00060513          	mv	a0,a2
    16a0:	00068593          	mv	a1,a3
    16a4:	00000613          	li	a2,0
    16a8:	00000693          	li	a3,0
    16ac:	6580d0ef          	jal	ra,ed04 <__eqdf2>
    16b0:	02012783          	lw	a5,32(sp)
    16b4:	01812703          	lw	a4,24(sp)
    16b8:	fff78413          	addi	s0,a5,-1
    16bc:	3a0500e3          	beqz	a0,225c <_vfprintf_r+0x12ac>
    16c0:	001b8793          	addi	a5,s7,1
    16c4:	001c8c93          	addi	s9,s9,1
    16c8:	00870733          	add	a4,a4,s0
    16cc:	00fda023          	sw	a5,0(s11)
    16d0:	008da223          	sw	s0,4(s11)
    16d4:	0ae12423          	sw	a4,168(sp)
    16d8:	0b912223          	sw	s9,164(sp)
    16dc:	00700793          	li	a5,7
    16e0:	008d8d93          	addi	s11,s11,8
    16e4:	3597cae3          	blt	a5,s9,2238 <_vfprintf_r+0x1288>
    16e8:	04412683          	lw	a3,68(sp)
    16ec:	08810793          	addi	a5,sp,136
    16f0:	001c8c93          	addi	s9,s9,1
    16f4:	00e68733          	add	a4,a3,a4
    16f8:	00fda023          	sw	a5,0(s11)
    16fc:	00dda223          	sw	a3,4(s11)
    1700:	0ae12423          	sw	a4,168(sp)
    1704:	0b912223          	sw	s9,164(sp)
    1708:	00700793          	li	a5,7
    170c:	008d8413          	addi	s0,s11,8
    1710:	b997dee3          	bge	a5,s9,12ac <_vfprintf_r+0x2fc>
    1714:	00812583          	lw	a1,8(sp)
    1718:	0a010613          	addi	a2,sp,160
    171c:	00098513          	mv	a0,s3
    1720:	451080ef          	jal	ra,a370 <__sprint_r>
    1724:	d2051ee3          	bnez	a0,1460 <_vfprintf_r+0x4b0>
    1728:	0a812703          	lw	a4,168(sp)
    172c:	0ac10413          	addi	s0,sp,172
    1730:	b7dff06f          	j	12ac <_vfprintf_r+0x2fc>
    1734:	2007f713          	andi	a4,a5,512
    1738:	d4071ae3          	bnez	a4,148c <_vfprintf_r+0x4dc>
    173c:	00812403          	lw	s0,8(sp)
    1740:	05842503          	lw	a0,88(s0)
    1744:	635050ef          	jal	ra,7578 <__retarget_lock_release_recursive>
    1748:	00c41783          	lh	a5,12(s0)
    174c:	d41ff06f          	j	148c <_vfprintf_r+0x4dc>
    1750:	00098513          	mv	a0,s3
    1754:	7bc040ef          	jal	ra,5f10 <__sinit>
    1758:	00c12783          	lw	a5,12(sp)
    175c:	8d9ff06f          	j	1034 <_vfprintf_r+0x84>
    1760:	0004ce03          	lbu	t3,0(s1)
    1764:	020aea93          	ori	s5,s5,32
    1768:	9f1ff06f          	j	1158 <_vfprintf_r+0x1a8>
    176c:	01412703          	lw	a4,20(sp)
    1770:	04300793          	li	a5,67
    1774:	00470a13          	addi	s4,a4,4
    1778:	72fe0ae3          	beq	t3,a5,26ac <_vfprintf_r+0x16fc>
    177c:	010af793          	andi	a5,s5,16
    1780:	720796e3          	bnez	a5,26ac <_vfprintf_r+0x16fc>
    1784:	01412783          	lw	a5,20(sp)
    1788:	00100c13          	li	s8,1
    178c:	00100c93          	li	s9,1
    1790:	0007a783          	lw	a5,0(a5)
    1794:	0ec10b93          	addi	s7,sp,236
    1798:	0ef10623          	sb	a5,236(sp)
    179c:	06010ba3          	sb	zero,119(sp)
    17a0:	01412a23          	sw	s4,20(sp)
    17a4:	00000613          	li	a2,0
    17a8:	00012823          	sw	zero,16(sp)
    17ac:	00000313          	li	t1,0
    17b0:	02012423          	sw	zero,40(sp)
    17b4:	02012223          	sw	zero,36(sp)
    17b8:	00012c23          	sw	zero,24(sp)
    17bc:	a29ff06f          	j	11e4 <_vfprintf_r+0x234>
    17c0:	01412783          	lw	a5,20(sp)
    17c4:	06010ba3          	sb	zero,119(sp)
    17c8:	000a0313          	mv	t1,s4
    17cc:	0007ab83          	lw	s7,0(a5)
    17d0:	00478d93          	addi	s11,a5,4
    17d4:	6a0b80e3          	beqz	s7,2674 <_vfprintf_r+0x16c4>
    17d8:	05300713          	li	a4,83
    17dc:	00ee1463          	bne	t3,a4,17e4 <_vfprintf_r+0x834>
    17e0:	32c0106f          	j	2b0c <_vfprintf_r+0x1b5c>
    17e4:	010af793          	andi	a5,s5,16
    17e8:	00f12c23          	sw	a5,24(sp)
    17ec:	00078463          	beqz	a5,17f4 <_vfprintf_r+0x844>
    17f0:	31c0106f          	j	2b0c <_vfprintf_r+0x1b5c>
    17f4:	fff00713          	li	a4,-1
    17f8:	00ea1463          	bne	s4,a4,1800 <_vfprintf_r+0x850>
    17fc:	6940106f          	j	2e90 <_vfprintf_r+0x1ee0>
    1800:	000a0613          	mv	a2,s4
    1804:	00000593          	li	a1,0
    1808:	000b8513          	mv	a0,s7
    180c:	01412a23          	sw	s4,20(sp)
    1810:	0bd060ef          	jal	ra,80cc <memchr>
    1814:	00a12823          	sw	a0,16(sp)
    1818:	01412303          	lw	t1,20(sp)
    181c:	00051463          	bnez	a0,1824 <_vfprintf_r+0x874>
    1820:	3000206f          	j	3b20 <_vfprintf_r+0x2b70>
    1824:	01012783          	lw	a5,16(sp)
    1828:	41778cb3          	sub	s9,a5,s7
    182c:	07714603          	lbu	a2,119(sp)
    1830:	fffcc893          	not	a7,s9
    1834:	41f8d893          	srai	a7,a7,0x1f
    1838:	01b12a23          	sw	s11,20(sp)
    183c:	02012423          	sw	zero,40(sp)
    1840:	02012223          	sw	zero,36(sp)
    1844:	00012823          	sw	zero,16(sp)
    1848:	011cfc33          	and	s8,s9,a7
    184c:	00000313          	li	t1,0
    1850:	07300e13          	li	t3,115
    1854:	980608e3          	beqz	a2,11e4 <_vfprintf_r+0x234>
    1858:	d8dff06f          	j	15e4 <_vfprintf_r+0x634>
    185c:	01412783          	lw	a5,20(sp)
    1860:	0007a903          	lw	s2,0(a5)
    1864:	00478793          	addi	a5,a5,4
    1868:	380958e3          	bgez	s2,23f8 <_vfprintf_r+0x1448>
    186c:	41200933          	neg	s2,s2
    1870:	00f12a23          	sw	a5,20(sp)
    1874:	0004ce03          	lbu	t3,0(s1)
    1878:	004aea93          	ori	s5,s5,4
    187c:	8ddff06f          	j	1158 <_vfprintf_r+0x1a8>
    1880:	02b00793          	li	a5,43
    1884:	0004ce03          	lbu	t3,0(s1)
    1888:	06f10ba3          	sb	a5,119(sp)
    188c:	8cdff06f          	j	1158 <_vfprintf_r+0x1a8>
    1890:	0004ce03          	lbu	t3,0(s1)
    1894:	080aea93          	ori	s5,s5,128
    1898:	8c1ff06f          	j	1158 <_vfprintf_r+0x1a8>
    189c:	0004ce03          	lbu	t3,0(s1)
    18a0:	02a00793          	li	a5,42
    18a4:	00148713          	addi	a4,s1,1
    18a8:	00fe1463          	bne	t3,a5,18b0 <_vfprintf_r+0x900>
    18ac:	2c40206f          	j	3b70 <_vfprintf_r+0x2bc0>
    18b0:	fd0e0693          	addi	a3,t3,-48
    18b4:	00900793          	li	a5,9
    18b8:	00070493          	mv	s1,a4
    18bc:	00000a13          	li	s4,0
    18c0:	00900713          	li	a4,9
    18c4:	88d7ece3          	bltu	a5,a3,115c <_vfprintf_r+0x1ac>
    18c8:	0004ce03          	lbu	t3,0(s1)
    18cc:	002a1793          	slli	a5,s4,0x2
    18d0:	014787b3          	add	a5,a5,s4
    18d4:	00179793          	slli	a5,a5,0x1
    18d8:	00d78a33          	add	s4,a5,a3
    18dc:	fd0e0693          	addi	a3,t3,-48
    18e0:	00148493          	addi	s1,s1,1
    18e4:	fed772e3          	bgeu	a4,a3,18c8 <_vfprintf_r+0x918>
    18e8:	875ff06f          	j	115c <_vfprintf_r+0x1ac>
    18ec:	0004ce03          	lbu	t3,0(s1)
    18f0:	001aea93          	ori	s5,s5,1
    18f4:	865ff06f          	j	1158 <_vfprintf_r+0x1a8>
    18f8:	07714783          	lbu	a5,119(sp)
    18fc:	0004ce03          	lbu	t3,0(s1)
    1900:	84079ce3          	bnez	a5,1158 <_vfprintf_r+0x1a8>
    1904:	02000793          	li	a5,32
    1908:	06f10ba3          	sb	a5,119(sp)
    190c:	84dff06f          	j	1158 <_vfprintf_r+0x1a8>
    1910:	000a0313          	mv	t1,s4
    1914:	010aea93          	ori	s5,s5,16
    1918:	020af793          	andi	a5,s5,32
    191c:	26078ae3          	beqz	a5,2390 <_vfprintf_r+0x13e0>
    1920:	01412783          	lw	a5,20(sp)
    1924:	00778a13          	addi	s4,a5,7
    1928:	ff8a7a13          	andi	s4,s4,-8
    192c:	000a2c03          	lw	s8,0(s4)
    1930:	004a2c83          	lw	s9,4(s4)
    1934:	008a0793          	addi	a5,s4,8
    1938:	00f12a23          	sw	a5,20(sp)
    193c:	bffafd93          	andi	s11,s5,-1025
    1940:	00000793          	li	a5,0
    1944:	00000713          	li	a4,0
    1948:	06e10ba3          	sb	a4,119(sp)
    194c:	fff00713          	li	a4,-1
    1950:	2ce30c63          	beq	t1,a4,1c28 <_vfprintf_r+0xc78>
    1954:	019c6733          	or	a4,s8,s9
    1958:	f7fdfa93          	andi	s5,s11,-129
    195c:	2c071463          	bnez	a4,1c24 <_vfprintf_r+0xc74>
    1960:	32031a63          	bnez	t1,1c94 <_vfprintf_r+0xce4>
    1964:	5c0796e3          	bnez	a5,2730 <_vfprintf_r+0x1780>
    1968:	001dfc93          	andi	s9,s11,1
    196c:	15010b93          	addi	s7,sp,336
    1970:	300c9ae3          	bnez	s9,2484 <_vfprintf_r+0x14d4>
    1974:	07714603          	lbu	a2,119(sp)
    1978:	00030c13          	mv	s8,t1
    197c:	01935463          	bge	t1,s9,1984 <_vfprintf_r+0x9d4>
    1980:	000c8c13          	mv	s8,s9
    1984:	00012823          	sw	zero,16(sp)
    1988:	02012423          	sw	zero,40(sp)
    198c:	02012223          	sw	zero,36(sp)
    1990:	00012c23          	sw	zero,24(sp)
    1994:	840608e3          	beqz	a2,11e4 <_vfprintf_r+0x234>
    1998:	c4dff06f          	j	15e4 <_vfprintf_r+0x634>
    199c:	0004ce03          	lbu	t3,0(s1)
    19a0:	06800793          	li	a5,104
    19a4:	4cfe00e3          	beq	t3,a5,2664 <_vfprintf_r+0x16b4>
    19a8:	040aea93          	ori	s5,s5,64
    19ac:	facff06f          	j	1158 <_vfprintf_r+0x1a8>
    19b0:	000a0313          	mv	t1,s4
    19b4:	010aed93          	ori	s11,s5,16
    19b8:	020df793          	andi	a5,s11,32
    19bc:	140786e3          	beqz	a5,2308 <_vfprintf_r+0x1358>
    19c0:	01412783          	lw	a5,20(sp)
    19c4:	00778a13          	addi	s4,a5,7
    19c8:	ff8a7a13          	andi	s4,s4,-8
    19cc:	008a0793          	addi	a5,s4,8
    19d0:	00f12a23          	sw	a5,20(sp)
    19d4:	000a2c03          	lw	s8,0(s4)
    19d8:	004a2c83          	lw	s9,4(s4)
    19dc:	00100793          	li	a5,1
    19e0:	f65ff06f          	j	1944 <_vfprintf_r+0x994>
    19e4:	0004ce03          	lbu	t3,0(s1)
    19e8:	06c00793          	li	a5,108
    19ec:	42fe04e3          	beq	t3,a5,2614 <_vfprintf_r+0x1664>
    19f0:	010aea93          	ori	s5,s5,16
    19f4:	f64ff06f          	j	1158 <_vfprintf_r+0x1a8>
    19f8:	0004ce03          	lbu	t3,0(s1)
    19fc:	008aea93          	ori	s5,s5,8
    1a00:	f58ff06f          	j	1158 <_vfprintf_r+0x1a8>
    1a04:	000a0313          	mv	t1,s4
    1a08:	010aea93          	ori	s5,s5,16
    1a0c:	020af793          	andi	a5,s5,32
    1a10:	120786e3          	beqz	a5,233c <_vfprintf_r+0x138c>
    1a14:	01412783          	lw	a5,20(sp)
    1a18:	00778a13          	addi	s4,a5,7
    1a1c:	ff8a7a13          	andi	s4,s4,-8
    1a20:	004a2783          	lw	a5,4(s4)
    1a24:	000a2c03          	lw	s8,0(s4)
    1a28:	008a0713          	addi	a4,s4,8
    1a2c:	00e12a23          	sw	a4,20(sp)
    1a30:	00078c93          	mv	s9,a5
    1a34:	1207cee3          	bltz	a5,2370 <_vfprintf_r+0x13c0>
    1a38:	fff00793          	li	a5,-1
    1a3c:	000a8d93          	mv	s11,s5
    1a40:	02f30263          	beq	t1,a5,1a64 <_vfprintf_r+0xab4>
    1a44:	019c67b3          	or	a5,s8,s9
    1a48:	f7fafd93          	andi	s11,s5,-129
    1a4c:	00079c63          	bnez	a5,1a64 <_vfprintf_r+0xab4>
    1a50:	02031063          	bnez	t1,1a70 <_vfprintf_r+0xac0>
    1a54:	00000c93          	li	s9,0
    1a58:	000d8a93          	mv	s5,s11
    1a5c:	15010b93          	addi	s7,sp,336
    1a60:	f15ff06f          	j	1974 <_vfprintf_r+0x9c4>
    1a64:	520c9ce3          	bnez	s9,279c <_vfprintf_r+0x17ec>
    1a68:	00900793          	li	a5,9
    1a6c:	5387e8e3          	bltu	a5,s8,279c <_vfprintf_r+0x17ec>
    1a70:	030c0c13          	addi	s8,s8,48
    1a74:	158107a3          	sb	s8,335(sp)
    1a78:	000d8a93          	mv	s5,s11
    1a7c:	00100c93          	li	s9,1
    1a80:	14f10b93          	addi	s7,sp,335
    1a84:	ef1ff06f          	j	1974 <_vfprintf_r+0x9c4>
    1a88:	01412703          	lw	a4,20(sp)
    1a8c:	ffff87b7          	lui	a5,0xffff8
    1a90:	8307c793          	xori	a5,a5,-2000
    1a94:	06f11c23          	sh	a5,120(sp)
    1a98:	00470793          	addi	a5,a4,4
    1a9c:	00f12a23          	sw	a5,20(sp)
    1aa0:	0001e797          	auipc	a5,0x1e
    1aa4:	67478793          	addi	a5,a5,1652 # 20114 <environ+0x88>
    1aa8:	02f12e23          	sw	a5,60(sp)
    1aac:	00072c03          	lw	s8,0(a4)
    1ab0:	000a0313          	mv	t1,s4
    1ab4:	00000c93          	li	s9,0
    1ab8:	002aed93          	ori	s11,s5,2
    1abc:	00200793          	li	a5,2
    1ac0:	07800e13          	li	t3,120
    1ac4:	e81ff06f          	j	1944 <_vfprintf_r+0x994>
    1ac8:	020af793          	andi	a5,s5,32
    1acc:	200782e3          	beqz	a5,24d0 <_vfprintf_r+0x1520>
    1ad0:	01412783          	lw	a5,20(sp)
    1ad4:	00c12683          	lw	a3,12(sp)
    1ad8:	0007a783          	lw	a5,0(a5)
    1adc:	41f6d713          	srai	a4,a3,0x1f
    1ae0:	00d7a023          	sw	a3,0(a5)
    1ae4:	00e7a223          	sw	a4,4(a5)
    1ae8:	01412783          	lw	a5,20(sp)
    1aec:	00048b93          	mv	s7,s1
    1af0:	00478793          	addi	a5,a5,4
    1af4:	00f12a23          	sw	a5,20(sp)
    1af8:	df8ff06f          	j	10f0 <_vfprintf_r+0x140>
    1afc:	06500693          	li	a3,101
    1b00:	b3c6d2e3          	bge	a3,t3,1624 <_vfprintf_r+0x674>
    1b04:	02c12603          	lw	a2,44(sp)
    1b08:	03012683          	lw	a3,48(sp)
    1b0c:	00060513          	mv	a0,a2
    1b10:	00068593          	mv	a1,a3
    1b14:	00000613          	li	a2,0
    1b18:	00000693          	li	a3,0
    1b1c:	1e80d0ef          	jal	ra,ed04 <__eqdf2>
    1b20:	54051e63          	bnez	a0,207c <_vfprintf_r+0x10cc>
    1b24:	0a412783          	lw	a5,164(sp)
    1b28:	0001e697          	auipc	a3,0x1e
    1b2c:	61c68693          	addi	a3,a3,1564 # 20144 <environ+0xb8>
    1b30:	00d42023          	sw	a3,0(s0)
    1b34:	001a0a13          	addi	s4,s4,1
    1b38:	00100693          	li	a3,1
    1b3c:	00178793          	addi	a5,a5,1
    1b40:	00d42223          	sw	a3,4(s0)
    1b44:	0b412423          	sw	s4,168(sp)
    1b48:	0af12223          	sw	a5,164(sp)
    1b4c:	00700693          	li	a3,7
    1b50:	00840413          	addi	s0,s0,8
    1b54:	78f6cae3          	blt	a3,a5,2ae8 <_vfprintf_r+0x1b38>
    1b58:	07c12783          	lw	a5,124(sp)
    1b5c:	02012703          	lw	a4,32(sp)
    1b60:	06e7dee3          	bge	a5,a4,23dc <_vfprintf_r+0x142c>
    1b64:	03812783          	lw	a5,56(sp)
    1b68:	03412683          	lw	a3,52(sp)
    1b6c:	00840413          	addi	s0,s0,8
    1b70:	fef42c23          	sw	a5,-8(s0)
    1b74:	0a412783          	lw	a5,164(sp)
    1b78:	01468733          	add	a4,a3,s4
    1b7c:	fed42e23          	sw	a3,-4(s0)
    1b80:	00178793          	addi	a5,a5,1
    1b84:	0ae12423          	sw	a4,168(sp)
    1b88:	0af12223          	sw	a5,164(sp)
    1b8c:	00700693          	li	a3,7
    1b90:	2af6c8e3          	blt	a3,a5,2640 <_vfprintf_r+0x1690>
    1b94:	02012783          	lw	a5,32(sp)
    1b98:	fff78c93          	addi	s9,a5,-1
    1b9c:	f1905863          	blez	s9,12ac <_vfprintf_r+0x2fc>
    1ba0:	01000693          	li	a3,16
    1ba4:	0a412783          	lw	a5,164(sp)
    1ba8:	0001ea17          	auipc	s4,0x1e
    1bac:	7a4a0a13          	addi	s4,s4,1956 # 2034c <zeroes.0>
    1bb0:	0196c463          	blt	a3,s9,1bb8 <_vfprintf_r+0xc08>
    1bb4:	0a00106f          	j	2c54 <_vfprintf_r+0x1ca4>
    1bb8:	000a0693          	mv	a3,s4
    1bbc:	01000d93          	li	s11,16
    1bc0:	00090a13          	mv	s4,s2
    1bc4:	00700b93          	li	s7,7
    1bc8:	00048913          	mv	s2,s1
    1bcc:	00068493          	mv	s1,a3
    1bd0:	0100006f          	j	1be0 <_vfprintf_r+0xc30>
    1bd4:	ff0c8c93          	addi	s9,s9,-16
    1bd8:	019dc463          	blt	s11,s9,1be0 <_vfprintf_r+0xc30>
    1bdc:	0680106f          	j	2c44 <_vfprintf_r+0x1c94>
    1be0:	01070713          	addi	a4,a4,16
    1be4:	00178793          	addi	a5,a5,1
    1be8:	00942023          	sw	s1,0(s0)
    1bec:	01b42223          	sw	s11,4(s0)
    1bf0:	0ae12423          	sw	a4,168(sp)
    1bf4:	0af12223          	sw	a5,164(sp)
    1bf8:	00840413          	addi	s0,s0,8
    1bfc:	fcfbdce3          	bge	s7,a5,1bd4 <_vfprintf_r+0xc24>
    1c00:	00812583          	lw	a1,8(sp)
    1c04:	0a010613          	addi	a2,sp,160
    1c08:	00098513          	mv	a0,s3
    1c0c:	764080ef          	jal	ra,a370 <__sprint_r>
    1c10:	840518e3          	bnez	a0,1460 <_vfprintf_r+0x4b0>
    1c14:	0a812703          	lw	a4,168(sp)
    1c18:	0a412783          	lw	a5,164(sp)
    1c1c:	0ac10413          	addi	s0,sp,172
    1c20:	fb5ff06f          	j	1bd4 <_vfprintf_r+0xc24>
    1c24:	000a8d93          	mv	s11,s5
    1c28:	00100713          	li	a4,1
    1c2c:	e2e78ce3          	beq	a5,a4,1a64 <_vfprintf_r+0xab4>
    1c30:	00200713          	li	a4,2
    1c34:	06e78c63          	beq	a5,a4,1cac <_vfprintf_r+0xcfc>
    1c38:	15010b93          	addi	s7,sp,336
    1c3c:	01dc9793          	slli	a5,s9,0x1d
    1c40:	007c7713          	andi	a4,s8,7
    1c44:	003c5c13          	srli	s8,s8,0x3
    1c48:	03070713          	addi	a4,a4,48
    1c4c:	0187ec33          	or	s8,a5,s8
    1c50:	003cdc93          	srli	s9,s9,0x3
    1c54:	feeb8fa3          	sb	a4,-1(s7)
    1c58:	019c67b3          	or	a5,s8,s9
    1c5c:	000b8613          	mv	a2,s7
    1c60:	fffb8b93          	addi	s7,s7,-1
    1c64:	fc079ce3          	bnez	a5,1c3c <_vfprintf_r+0xc8c>
    1c68:	001df693          	andi	a3,s11,1
    1c6c:	06068a63          	beqz	a3,1ce0 <_vfprintf_r+0xd30>
    1c70:	03000693          	li	a3,48
    1c74:	06d70663          	beq	a4,a3,1ce0 <_vfprintf_r+0xd30>
    1c78:	ffe60613          	addi	a2,a2,-2
    1c7c:	15010793          	addi	a5,sp,336
    1c80:	fedb8fa3          	sb	a3,-1(s7)
    1c84:	40c78cb3          	sub	s9,a5,a2
    1c88:	000d8a93          	mv	s5,s11
    1c8c:	00060b93          	mv	s7,a2
    1c90:	ce5ff06f          	j	1974 <_vfprintf_r+0x9c4>
    1c94:	00100713          	li	a4,1
    1c98:	00e79463          	bne	a5,a4,1ca0 <_vfprintf_r+0xcf0>
    1c9c:	4090106f          	j	38a4 <_vfprintf_r+0x28f4>
    1ca0:	00200713          	li	a4,2
    1ca4:	000a8d93          	mv	s11,s5
    1ca8:	f8e798e3          	bne	a5,a4,1c38 <_vfprintf_r+0xc88>
    1cac:	03c12683          	lw	a3,60(sp)
    1cb0:	15010b93          	addi	s7,sp,336
    1cb4:	00fc7793          	andi	a5,s8,15
    1cb8:	00f687b3          	add	a5,a3,a5
    1cbc:	0007c703          	lbu	a4,0(a5)
    1cc0:	004c5c13          	srli	s8,s8,0x4
    1cc4:	01cc9793          	slli	a5,s9,0x1c
    1cc8:	0187ec33          	or	s8,a5,s8
    1ccc:	004cdc93          	srli	s9,s9,0x4
    1cd0:	feeb8fa3          	sb	a4,-1(s7)
    1cd4:	019c67b3          	or	a5,s8,s9
    1cd8:	fffb8b93          	addi	s7,s7,-1
    1cdc:	fc079ce3          	bnez	a5,1cb4 <_vfprintf_r+0xd04>
    1ce0:	15010793          	addi	a5,sp,336
    1ce4:	41778cb3          	sub	s9,a5,s7
    1ce8:	000d8a93          	mv	s5,s11
    1cec:	c89ff06f          	j	1974 <_vfprintf_r+0x9c4>
    1cf0:	41890db3          	sub	s11,s2,s8
    1cf4:	d9b05063          	blez	s11,1274 <_vfprintf_r+0x2c4>
    1cf8:	01000593          	li	a1,16
    1cfc:	000a0713          	mv	a4,s4
    1d00:	0a412603          	lw	a2,164(sp)
    1d04:	0001ea17          	auipc	s4,0x1e
    1d08:	648a0a13          	addi	s4,s4,1608 # 2034c <zeroes.0>
    1d0c:	0bb5d463          	bge	a1,s11,1db4 <_vfprintf_r+0xe04>
    1d10:	04912823          	sw	s1,80(sp)
    1d14:	00040793          	mv	a5,s0
    1d18:	000a0493          	mv	s1,s4
    1d1c:	000d8413          	mv	s0,s11
    1d20:	00090a13          	mv	s4,s2
    1d24:	000b8d93          	mv	s11,s7
    1d28:	01000f93          	li	t6,16
    1d2c:	00700293          	li	t0,7
    1d30:	00030b93          	mv	s7,t1
    1d34:	000e0913          	mv	s2,t3
    1d38:	00c0006f          	j	1d44 <_vfprintf_r+0xd94>
    1d3c:	ff040413          	addi	s0,s0,-16
    1d40:	048fda63          	bge	t6,s0,1d94 <_vfprintf_r+0xde4>
    1d44:	01070713          	addi	a4,a4,16
    1d48:	00160613          	addi	a2,a2,1
    1d4c:	0097a023          	sw	s1,0(a5)
    1d50:	01f7a223          	sw	t6,4(a5)
    1d54:	0ae12423          	sw	a4,168(sp)
    1d58:	0ac12223          	sw	a2,164(sp)
    1d5c:	00878793          	addi	a5,a5,8
    1d60:	fcc2dee3          	bge	t0,a2,1d3c <_vfprintf_r+0xd8c>
    1d64:	00812583          	lw	a1,8(sp)
    1d68:	0a010613          	addi	a2,sp,160
    1d6c:	00098513          	mv	a0,s3
    1d70:	600080ef          	jal	ra,a370 <__sprint_r>
    1d74:	ee051663          	bnez	a0,1460 <_vfprintf_r+0x4b0>
    1d78:	01000f93          	li	t6,16
    1d7c:	ff040413          	addi	s0,s0,-16
    1d80:	0a812703          	lw	a4,168(sp)
    1d84:	0a412603          	lw	a2,164(sp)
    1d88:	0ac10793          	addi	a5,sp,172
    1d8c:	00700293          	li	t0,7
    1d90:	fa8fcae3          	blt	t6,s0,1d44 <_vfprintf_r+0xd94>
    1d94:	00090e13          	mv	t3,s2
    1d98:	000a0913          	mv	s2,s4
    1d9c:	00048a13          	mv	s4,s1
    1da0:	05012483          	lw	s1,80(sp)
    1da4:	000b8313          	mv	t1,s7
    1da8:	000d8b93          	mv	s7,s11
    1dac:	00040d93          	mv	s11,s0
    1db0:	00078413          	mv	s0,a5
    1db4:	00ed8733          	add	a4,s11,a4
    1db8:	00160613          	addi	a2,a2,1
    1dbc:	01442023          	sw	s4,0(s0)
    1dc0:	01b42223          	sw	s11,4(s0)
    1dc4:	0ae12423          	sw	a4,168(sp)
    1dc8:	0ac12223          	sw	a2,164(sp)
    1dcc:	00700593          	li	a1,7
    1dd0:	7ac5c263          	blt	a1,a2,2574 <_vfprintf_r+0x15c4>
    1dd4:	41930db3          	sub	s11,t1,s9
    1dd8:	00840413          	addi	s0,s0,8
    1ddc:	00070a13          	mv	s4,a4
    1de0:	c9b05e63          	blez	s11,127c <_vfprintf_r+0x2cc>
    1de4:	01000593          	li	a1,16
    1de8:	000a0713          	mv	a4,s4
    1dec:	0a412603          	lw	a2,164(sp)
    1df0:	0001ea17          	auipc	s4,0x1e
    1df4:	55ca0a13          	addi	s4,s4,1372 # 2034c <zeroes.0>
    1df8:	09b5dc63          	bge	a1,s11,1e90 <_vfprintf_r+0xee0>
    1dfc:	00040793          	mv	a5,s0
    1e00:	01000f13          	li	t5,16
    1e04:	000d8413          	mv	s0,s11
    1e08:	00700f93          	li	t6,7
    1e0c:	000a0d93          	mv	s11,s4
    1e10:	00090a13          	mv	s4,s2
    1e14:	000e0913          	mv	s2,t3
    1e18:	00c0006f          	j	1e24 <_vfprintf_r+0xe74>
    1e1c:	ff040413          	addi	s0,s0,-16
    1e20:	048f5e63          	bge	t5,s0,1e7c <_vfprintf_r+0xecc>
    1e24:	01070713          	addi	a4,a4,16
    1e28:	00160613          	addi	a2,a2,1
    1e2c:	0001e697          	auipc	a3,0x1e
    1e30:	52068693          	addi	a3,a3,1312 # 2034c <zeroes.0>
    1e34:	00d7a023          	sw	a3,0(a5)
    1e38:	01e7a223          	sw	t5,4(a5)
    1e3c:	0ae12423          	sw	a4,168(sp)
    1e40:	0ac12223          	sw	a2,164(sp)
    1e44:	00878793          	addi	a5,a5,8
    1e48:	fccfdae3          	bge	t6,a2,1e1c <_vfprintf_r+0xe6c>
    1e4c:	00812583          	lw	a1,8(sp)
    1e50:	0a010613          	addi	a2,sp,160
    1e54:	00098513          	mv	a0,s3
    1e58:	518080ef          	jal	ra,a370 <__sprint_r>
    1e5c:	e0051263          	bnez	a0,1460 <_vfprintf_r+0x4b0>
    1e60:	01000f13          	li	t5,16
    1e64:	ff040413          	addi	s0,s0,-16
    1e68:	0a812703          	lw	a4,168(sp)
    1e6c:	0a412603          	lw	a2,164(sp)
    1e70:	0ac10793          	addi	a5,sp,172
    1e74:	00700f93          	li	t6,7
    1e78:	fa8f46e3          	blt	t5,s0,1e24 <_vfprintf_r+0xe74>
    1e7c:	00090e13          	mv	t3,s2
    1e80:	000a0913          	mv	s2,s4
    1e84:	000d8a13          	mv	s4,s11
    1e88:	00040d93          	mv	s11,s0
    1e8c:	00078413          	mv	s0,a5
    1e90:	00ed8733          	add	a4,s11,a4
    1e94:	00160613          	addi	a2,a2,1
    1e98:	01442023          	sw	s4,0(s0)
    1e9c:	01b42223          	sw	s11,4(s0)
    1ea0:	0ae12423          	sw	a4,168(sp)
    1ea4:	0ac12223          	sw	a2,164(sp)
    1ea8:	00700593          	li	a1,7
    1eac:	42c5ca63          	blt	a1,a2,22e0 <_vfprintf_r+0x1330>
    1eb0:	00840413          	addi	s0,s0,8
    1eb4:	00070a13          	mv	s4,a4
    1eb8:	bc4ff06f          	j	127c <_vfprintf_r+0x2cc>
    1ebc:	01000513          	li	a0,16
    1ec0:	0a812583          	lw	a1,168(sp)
    1ec4:	0a412603          	lw	a2,164(sp)
    1ec8:	0001ea17          	auipc	s4,0x1e
    1ecc:	494a0a13          	addi	s4,s4,1172 # 2035c <blanks.1>
    1ed0:	0ae55063          	bge	a0,a4,1f70 <_vfprintf_r+0xfc0>
    1ed4:	04912a23          	sw	s1,84(sp)
    1ed8:	00040793          	mv	a5,s0
    1edc:	000a0493          	mv	s1,s4
    1ee0:	01000f13          	li	t5,16
    1ee4:	00700393          	li	t2,7
    1ee8:	04512823          	sw	t0,80(sp)
    1eec:	05c12c23          	sw	t3,88(sp)
    1ef0:	00070413          	mv	s0,a4
    1ef4:	00030a13          	mv	s4,t1
    1ef8:	00c0006f          	j	1f04 <_vfprintf_r+0xf54>
    1efc:	ff040413          	addi	s0,s0,-16
    1f00:	048f5a63          	bge	t5,s0,1f54 <_vfprintf_r+0xfa4>
    1f04:	01058593          	addi	a1,a1,16
    1f08:	00160613          	addi	a2,a2,1
    1f0c:	0097a023          	sw	s1,0(a5)
    1f10:	01e7a223          	sw	t5,4(a5)
    1f14:	0ab12423          	sw	a1,168(sp)
    1f18:	0ac12223          	sw	a2,164(sp)
    1f1c:	00878793          	addi	a5,a5,8
    1f20:	fcc3dee3          	bge	t2,a2,1efc <_vfprintf_r+0xf4c>
    1f24:	00812583          	lw	a1,8(sp)
    1f28:	0a010613          	addi	a2,sp,160
    1f2c:	00098513          	mv	a0,s3
    1f30:	440080ef          	jal	ra,a370 <__sprint_r>
    1f34:	d2051663          	bnez	a0,1460 <_vfprintf_r+0x4b0>
    1f38:	01000f13          	li	t5,16
    1f3c:	ff040413          	addi	s0,s0,-16
    1f40:	0a812583          	lw	a1,168(sp)
    1f44:	0a412603          	lw	a2,164(sp)
    1f48:	0ac10793          	addi	a5,sp,172
    1f4c:	00700393          	li	t2,7
    1f50:	fa8f4ae3          	blt	t5,s0,1f04 <_vfprintf_r+0xf54>
    1f54:	000a0313          	mv	t1,s4
    1f58:	05012283          	lw	t0,80(sp)
    1f5c:	00048a13          	mv	s4,s1
    1f60:	05812e03          	lw	t3,88(sp)
    1f64:	05412483          	lw	s1,84(sp)
    1f68:	00040713          	mv	a4,s0
    1f6c:	00078413          	mv	s0,a5
    1f70:	00b705b3          	add	a1,a4,a1
    1f74:	00160613          	addi	a2,a2,1
    1f78:	00e42223          	sw	a4,4(s0)
    1f7c:	01442023          	sw	s4,0(s0)
    1f80:	0ab12423          	sw	a1,168(sp)
    1f84:	0ac12223          	sw	a2,164(sp)
    1f88:	00700713          	li	a4,7
    1f8c:	10c74ce3          	blt	a4,a2,28a4 <_vfprintf_r+0x18f4>
    1f90:	07714603          	lbu	a2,119(sp)
    1f94:	00840413          	addi	s0,s0,8
    1f98:	a68ff06f          	j	1200 <_vfprintf_r+0x250>
    1f9c:	00812583          	lw	a1,8(sp)
    1fa0:	0a010613          	addi	a2,sp,160
    1fa4:	00098513          	mv	a0,s3
    1fa8:	04612a23          	sw	t1,84(sp)
    1fac:	05c12823          	sw	t3,80(sp)
    1fb0:	3c0080ef          	jal	ra,a370 <__sprint_r>
    1fb4:	ca051663          	bnez	a0,1460 <_vfprintf_r+0x4b0>
    1fb8:	0a812a03          	lw	s4,168(sp)
    1fbc:	05412303          	lw	t1,84(sp)
    1fc0:	05012e03          	lw	t3,80(sp)
    1fc4:	0ac10413          	addi	s0,sp,172
    1fc8:	aa4ff06f          	j	126c <_vfprintf_r+0x2bc>
    1fcc:	01000693          	li	a3,16
    1fd0:	0a412783          	lw	a5,164(sp)
    1fd4:	0001ea17          	auipc	s4,0x1e
    1fd8:	388a0a13          	addi	s4,s4,904 # 2035c <blanks.1>
    1fdc:	0796d263          	bge	a3,s9,2040 <_vfprintf_r+0x1090>
    1fe0:	00812b83          	lw	s7,8(sp)
    1fe4:	01000d93          	li	s11,16
    1fe8:	00700a93          	li	s5,7
    1fec:	00c0006f          	j	1ff8 <_vfprintf_r+0x1048>
    1ff0:	ff0c8c93          	addi	s9,s9,-16
    1ff4:	059dd663          	bge	s11,s9,2040 <_vfprintf_r+0x1090>
    1ff8:	01070713          	addi	a4,a4,16
    1ffc:	00178793          	addi	a5,a5,1
    2000:	01442023          	sw	s4,0(s0)
    2004:	01b42223          	sw	s11,4(s0)
    2008:	0ae12423          	sw	a4,168(sp)
    200c:	0af12223          	sw	a5,164(sp)
    2010:	00840413          	addi	s0,s0,8
    2014:	fcfadee3          	bge	s5,a5,1ff0 <_vfprintf_r+0x1040>
    2018:	0a010613          	addi	a2,sp,160
    201c:	000b8593          	mv	a1,s7
    2020:	00098513          	mv	a0,s3
    2024:	34c080ef          	jal	ra,a370 <__sprint_r>
    2028:	c2051c63          	bnez	a0,1460 <_vfprintf_r+0x4b0>
    202c:	ff0c8c93          	addi	s9,s9,-16
    2030:	0a812703          	lw	a4,168(sp)
    2034:	0a412783          	lw	a5,164(sp)
    2038:	0ac10413          	addi	s0,sp,172
    203c:	fb9dcee3          	blt	s11,s9,1ff8 <_vfprintf_r+0x1048>
    2040:	01970733          	add	a4,a4,s9
    2044:	00178793          	addi	a5,a5,1
    2048:	01442023          	sw	s4,0(s0)
    204c:	01942223          	sw	s9,4(s0)
    2050:	0ae12423          	sw	a4,168(sp)
    2054:	0af12223          	sw	a5,164(sp)
    2058:	00700693          	li	a3,7
    205c:	a6f6d063          	bge	a3,a5,12bc <_vfprintf_r+0x30c>
    2060:	00812583          	lw	a1,8(sp)
    2064:	0a010613          	addi	a2,sp,160
    2068:	00098513          	mv	a0,s3
    206c:	304080ef          	jal	ra,a370 <__sprint_r>
    2070:	be051863          	bnez	a0,1460 <_vfprintf_r+0x4b0>
    2074:	0a812703          	lw	a4,168(sp)
    2078:	a44ff06f          	j	12bc <_vfprintf_r+0x30c>
    207c:	07c12583          	lw	a1,124(sp)
    2080:	38b05263          	blez	a1,2404 <_vfprintf_r+0x1454>
    2084:	02012783          	lw	a5,32(sp)
    2088:	01812703          	lw	a4,24(sp)
    208c:	00fb8333          	add	t1,s7,a5
    2090:	00070c93          	mv	s9,a4
    2094:	00e7d463          	bge	a5,a4,209c <_vfprintf_r+0x10ec>
    2098:	00078c93          	mv	s9,a5
    209c:	03905863          	blez	s9,20cc <_vfprintf_r+0x111c>
    20a0:	0a412603          	lw	a2,164(sp)
    20a4:	019a0a33          	add	s4,s4,s9
    20a8:	01742023          	sw	s7,0(s0)
    20ac:	00160613          	addi	a2,a2,1
    20b0:	01942223          	sw	s9,4(s0)
    20b4:	0b412423          	sw	s4,168(sp)
    20b8:	0ac12223          	sw	a2,164(sp)
    20bc:	00700593          	li	a1,7
    20c0:	00840413          	addi	s0,s0,8
    20c4:	00c5d463          	bge	a1,a2,20cc <_vfprintf_r+0x111c>
    20c8:	60c0106f          	j	36d4 <_vfprintf_r+0x2724>
    20cc:	fffcc613          	not	a2,s9
    20d0:	01812783          	lw	a5,24(sp)
    20d4:	41f65613          	srai	a2,a2,0x1f
    20d8:	00ccf6b3          	and	a3,s9,a2
    20dc:	40d78cb3          	sub	s9,a5,a3
    20e0:	3b904ae3          	bgtz	s9,2c94 <_vfprintf_r+0x1ce4>
    20e4:	01812783          	lw	a5,24(sp)
    20e8:	400af693          	andi	a3,s5,1024
    20ec:	00fb8bb3          	add	s7,s7,a5
    20f0:	00068463          	beqz	a3,20f8 <_vfprintf_r+0x1148>
    20f4:	33c0106f          	j	3430 <_vfprintf_r+0x2480>
    20f8:	07c12683          	lw	a3,124(sp)
    20fc:	02012783          	lw	a5,32(sp)
    2100:	00f6c663          	blt	a3,a5,210c <_vfprintf_r+0x115c>
    2104:	001af613          	andi	a2,s5,1
    2108:	4e060ce3          	beqz	a2,2e00 <_vfprintf_r+0x1e50>
    210c:	03812603          	lw	a2,56(sp)
    2110:	03412783          	lw	a5,52(sp)
    2114:	00700593          	li	a1,7
    2118:	00c42023          	sw	a2,0(s0)
    211c:	0a412603          	lw	a2,164(sp)
    2120:	01478733          	add	a4,a5,s4
    2124:	00f42223          	sw	a5,4(s0)
    2128:	00160613          	addi	a2,a2,1
    212c:	0ae12423          	sw	a4,168(sp)
    2130:	0ac12223          	sw	a2,164(sp)
    2134:	00840413          	addi	s0,s0,8
    2138:	00c5d463          	bge	a1,a2,2140 <_vfprintf_r+0x1190>
    213c:	5d00106f          	j	370c <_vfprintf_r+0x275c>
    2140:	02012783          	lw	a5,32(sp)
    2144:	41730cb3          	sub	s9,t1,s7
    2148:	40d786b3          	sub	a3,a5,a3
    214c:	4796cee3          	blt	a3,s9,2dc8 <_vfprintf_r+0x1e18>
    2150:	03905863          	blez	s9,2180 <_vfprintf_r+0x11d0>
    2154:	0a412783          	lw	a5,164(sp)
    2158:	01970733          	add	a4,a4,s9
    215c:	01742023          	sw	s7,0(s0)
    2160:	00178793          	addi	a5,a5,1
    2164:	01942223          	sw	s9,4(s0)
    2168:	0ae12423          	sw	a4,168(sp)
    216c:	0af12223          	sw	a5,164(sp)
    2170:	00700613          	li	a2,7
    2174:	00840413          	addi	s0,s0,8
    2178:	00f65463          	bge	a2,a5,2180 <_vfprintf_r+0x11d0>
    217c:	6000106f          	j	377c <_vfprintf_r+0x27cc>
    2180:	fffcc793          	not	a5,s9
    2184:	41f7d793          	srai	a5,a5,0x1f
    2188:	00fcfcb3          	and	s9,s9,a5
    218c:	41968cb3          	sub	s9,a3,s9
    2190:	91905e63          	blez	s9,12ac <_vfprintf_r+0x2fc>
    2194:	01000693          	li	a3,16
    2198:	0a412783          	lw	a5,164(sp)
    219c:	0001ea17          	auipc	s4,0x1e
    21a0:	1b0a0a13          	addi	s4,s4,432 # 2034c <zeroes.0>
    21a4:	2b96d8e3          	bge	a3,s9,2c54 <_vfprintf_r+0x1ca4>
    21a8:	000a0693          	mv	a3,s4
    21ac:	01000d93          	li	s11,16
    21b0:	00090a13          	mv	s4,s2
    21b4:	00700b93          	li	s7,7
    21b8:	00048913          	mv	s2,s1
    21bc:	00068493          	mv	s1,a3
    21c0:	00c0006f          	j	21cc <_vfprintf_r+0x121c>
    21c4:	ff0c8c93          	addi	s9,s9,-16
    21c8:	279ddee3          	bge	s11,s9,2c44 <_vfprintf_r+0x1c94>
    21cc:	01070713          	addi	a4,a4,16
    21d0:	00178793          	addi	a5,a5,1
    21d4:	00942023          	sw	s1,0(s0)
    21d8:	01b42223          	sw	s11,4(s0)
    21dc:	0ae12423          	sw	a4,168(sp)
    21e0:	0af12223          	sw	a5,164(sp)
    21e4:	00840413          	addi	s0,s0,8
    21e8:	fcfbdee3          	bge	s7,a5,21c4 <_vfprintf_r+0x1214>
    21ec:	00812583          	lw	a1,8(sp)
    21f0:	0a010613          	addi	a2,sp,160
    21f4:	00098513          	mv	a0,s3
    21f8:	178080ef          	jal	ra,a370 <__sprint_r>
    21fc:	a6051263          	bnez	a0,1460 <_vfprintf_r+0x4b0>
    2200:	0a812703          	lw	a4,168(sp)
    2204:	0a412783          	lw	a5,164(sp)
    2208:	0ac10413          	addi	s0,sp,172
    220c:	fb9ff06f          	j	21c4 <_vfprintf_r+0x1214>
    2210:	001af613          	andi	a2,s5,1
    2214:	c2061263          	bnez	a2,1638 <_vfprintf_r+0x688>
    2218:	0a412c83          	lw	s9,164(sp)
    221c:	01742023          	sw	s7,0(s0)
    2220:	00d42223          	sw	a3,4(s0)
    2224:	001c8c93          	addi	s9,s9,1
    2228:	0ae12423          	sw	a4,168(sp)
    222c:	0b912223          	sw	s9,164(sp)
    2230:	00700793          	li	a5,7
    2234:	cb97da63          	bge	a5,s9,16e8 <_vfprintf_r+0x738>
    2238:	00812583          	lw	a1,8(sp)
    223c:	0a010613          	addi	a2,sp,160
    2240:	00098513          	mv	a0,s3
    2244:	12c080ef          	jal	ra,a370 <__sprint_r>
    2248:	a0051c63          	bnez	a0,1460 <_vfprintf_r+0x4b0>
    224c:	0a812703          	lw	a4,168(sp)
    2250:	0a412c83          	lw	s9,164(sp)
    2254:	0ac10d93          	addi	s11,sp,172
    2258:	c90ff06f          	j	16e8 <_vfprintf_r+0x738>
    225c:	02012683          	lw	a3,32(sp)
    2260:	00100793          	li	a5,1
    2264:	c8d7d263          	bge	a5,a3,16e8 <_vfprintf_r+0x738>
    2268:	01100793          	li	a5,17
    226c:	0001ea17          	auipc	s4,0x1e
    2270:	0e0a0a13          	addi	s4,s4,224 # 2034c <zeroes.0>
    2274:	20d7d8e3          	bge	a5,a3,2c84 <_vfprintf_r+0x1cd4>
    2278:	000a0693          	mv	a3,s4
    227c:	01000793          	li	a5,16
    2280:	00040a13          	mv	s4,s0
    2284:	00700b93          	li	s7,7
    2288:	00068413          	mv	s0,a3
    228c:	00c0006f          	j	2298 <_vfprintf_r+0x12e8>
    2290:	ff0a0a13          	addi	s4,s4,-16
    2294:	1f47d2e3          	bge	a5,s4,2c78 <_vfprintf_r+0x1cc8>
    2298:	01070713          	addi	a4,a4,16
    229c:	001c8c93          	addi	s9,s9,1
    22a0:	008da023          	sw	s0,0(s11)
    22a4:	00fda223          	sw	a5,4(s11)
    22a8:	0ae12423          	sw	a4,168(sp)
    22ac:	0b912223          	sw	s9,164(sp)
    22b0:	008d8d93          	addi	s11,s11,8
    22b4:	fd9bdee3          	bge	s7,s9,2290 <_vfprintf_r+0x12e0>
    22b8:	00812583          	lw	a1,8(sp)
    22bc:	0a010613          	addi	a2,sp,160
    22c0:	00098513          	mv	a0,s3
    22c4:	0ac080ef          	jal	ra,a370 <__sprint_r>
    22c8:	98051c63          	bnez	a0,1460 <_vfprintf_r+0x4b0>
    22cc:	0a812703          	lw	a4,168(sp)
    22d0:	0a412c83          	lw	s9,164(sp)
    22d4:	0ac10d93          	addi	s11,sp,172
    22d8:	01000793          	li	a5,16
    22dc:	fb5ff06f          	j	2290 <_vfprintf_r+0x12e0>
    22e0:	00812583          	lw	a1,8(sp)
    22e4:	0a010613          	addi	a2,sp,160
    22e8:	00098513          	mv	a0,s3
    22ec:	05c12823          	sw	t3,80(sp)
    22f0:	080080ef          	jal	ra,a370 <__sprint_r>
    22f4:	96051663          	bnez	a0,1460 <_vfprintf_r+0x4b0>
    22f8:	0a812a03          	lw	s4,168(sp)
    22fc:	05012e03          	lw	t3,80(sp)
    2300:	0ac10413          	addi	s0,sp,172
    2304:	f79fe06f          	j	127c <_vfprintf_r+0x2cc>
    2308:	01412703          	lw	a4,20(sp)
    230c:	010df793          	andi	a5,s11,16
    2310:	00072c03          	lw	s8,0(a4)
    2314:	00470713          	addi	a4,a4,4
    2318:	00e12a23          	sw	a4,20(sp)
    231c:	18079263          	bnez	a5,24a0 <_vfprintf_r+0x14f0>
    2320:	040df793          	andi	a5,s11,64
    2324:	16078863          	beqz	a5,2494 <_vfprintf_r+0x14e4>
    2328:	010c1c13          	slli	s8,s8,0x10
    232c:	010c5c13          	srli	s8,s8,0x10
    2330:	00000c93          	li	s9,0
    2334:	00100793          	li	a5,1
    2338:	e0cff06f          	j	1944 <_vfprintf_r+0x994>
    233c:	01412703          	lw	a4,20(sp)
    2340:	010af793          	andi	a5,s5,16
    2344:	00072c03          	lw	s8,0(a4)
    2348:	00470713          	addi	a4,a4,4
    234c:	00e12a23          	sw	a4,20(sp)
    2350:	16079a63          	bnez	a5,24c4 <_vfprintf_r+0x1514>
    2354:	040af793          	andi	a5,s5,64
    2358:	16078263          	beqz	a5,24bc <_vfprintf_r+0x150c>
    235c:	010c1c13          	slli	s8,s8,0x10
    2360:	410c5c13          	srai	s8,s8,0x10
    2364:	41fc5c93          	srai	s9,s8,0x1f
    2368:	000c8793          	mv	a5,s9
    236c:	ec07d663          	bgez	a5,1a38 <_vfprintf_r+0xa88>
    2370:	018037b3          	snez	a5,s8
    2374:	41900cb3          	neg	s9,s9
    2378:	40fc8cb3          	sub	s9,s9,a5
    237c:	41800c33          	neg	s8,s8
    2380:	000a8d93          	mv	s11,s5
    2384:	02d00713          	li	a4,45
    2388:	00100793          	li	a5,1
    238c:	dbcff06f          	j	1948 <_vfprintf_r+0x998>
    2390:	01412703          	lw	a4,20(sp)
    2394:	010af793          	andi	a5,s5,16
    2398:	00072c03          	lw	s8,0(a4)
    239c:	00470713          	addi	a4,a4,4
    23a0:	00e12a23          	sw	a4,20(sp)
    23a4:	10079863          	bnez	a5,24b4 <_vfprintf_r+0x1504>
    23a8:	040af793          	andi	a5,s5,64
    23ac:	10078063          	beqz	a5,24ac <_vfprintf_r+0x14fc>
    23b0:	010c1c13          	slli	s8,s8,0x10
    23b4:	010c5c13          	srli	s8,s8,0x10
    23b8:	00000c93          	li	s9,0
    23bc:	d80ff06f          	j	193c <_vfprintf_r+0x98c>
    23c0:	00812403          	lw	s0,8(sp)
    23c4:	00f12623          	sw	a5,12(sp)
    23c8:	05842503          	lw	a0,88(s0)
    23cc:	194050ef          	jal	ra,7560 <__retarget_lock_acquire_recursive>
    23d0:	00c41703          	lh	a4,12(s0)
    23d4:	00c12783          	lw	a5,12(sp)
    23d8:	c7dfe06f          	j	1054 <_vfprintf_r+0xa4>
    23dc:	001af793          	andi	a5,s5,1
    23e0:	000a0713          	mv	a4,s4
    23e4:	00079463          	bnez	a5,23ec <_vfprintf_r+0x143c>
    23e8:	ec5fe06f          	j	12ac <_vfprintf_r+0x2fc>
    23ec:	f78ff06f          	j	1b64 <_vfprintf_r+0xbb4>
    23f0:	000a0313          	mv	t1,s4
    23f4:	e18ff06f          	j	1a0c <_vfprintf_r+0xa5c>
    23f8:	0004ce03          	lbu	t3,0(s1)
    23fc:	00f12a23          	sw	a5,20(sp)
    2400:	d59fe06f          	j	1158 <_vfprintf_r+0x1a8>
    2404:	0a412683          	lw	a3,164(sp)
    2408:	0001e617          	auipc	a2,0x1e
    240c:	d3c60613          	addi	a2,a2,-708 # 20144 <environ+0xb8>
    2410:	00c42023          	sw	a2,0(s0)
    2414:	001a0713          	addi	a4,s4,1
    2418:	00100613          	li	a2,1
    241c:	00168693          	addi	a3,a3,1
    2420:	00c42223          	sw	a2,4(s0)
    2424:	0ae12423          	sw	a4,168(sp)
    2428:	0ad12223          	sw	a3,164(sp)
    242c:	00700613          	li	a2,7
    2430:	00840413          	addi	s0,s0,8
    2434:	18d64ee3          	blt	a2,a3,2dd0 <_vfprintf_r+0x1e20>
    2438:	0e0598e3          	bnez	a1,2d28 <_vfprintf_r+0x1d78>
    243c:	02012783          	lw	a5,32(sp)
    2440:	001af693          	andi	a3,s5,1
    2444:	00f6e6b3          	or	a3,a3,a5
    2448:	00069463          	bnez	a3,2450 <_vfprintf_r+0x14a0>
    244c:	e61fe06f          	j	12ac <_vfprintf_r+0x2fc>
    2450:	03812683          	lw	a3,56(sp)
    2454:	03412783          	lw	a5,52(sp)
    2458:	00700613          	li	a2,7
    245c:	00d42023          	sw	a3,0(s0)
    2460:	0a412683          	lw	a3,164(sp)
    2464:	00e78733          	add	a4,a5,a4
    2468:	00f42223          	sw	a5,4(s0)
    246c:	00168693          	addi	a3,a3,1
    2470:	0ae12423          	sw	a4,168(sp)
    2474:	0ad12223          	sw	a3,164(sp)
    2478:	22d644e3          	blt	a2,a3,2ea0 <_vfprintf_r+0x1ef0>
    247c:	00840413          	addi	s0,s0,8
    2480:	0dd0006f          	j	2d5c <_vfprintf_r+0x1dac>
    2484:	03000793          	li	a5,48
    2488:	14f107a3          	sb	a5,335(sp)
    248c:	14f10b93          	addi	s7,sp,335
    2490:	ce4ff06f          	j	1974 <_vfprintf_r+0x9c4>
    2494:	200df793          	andi	a5,s11,512
    2498:	00078463          	beqz	a5,24a0 <_vfprintf_r+0x14f0>
    249c:	0ffc7c13          	zext.b	s8,s8
    24a0:	00000c93          	li	s9,0
    24a4:	00100793          	li	a5,1
    24a8:	c9cff06f          	j	1944 <_vfprintf_r+0x994>
    24ac:	200af793          	andi	a5,s5,512
    24b0:	18079ee3          	bnez	a5,2e4c <_vfprintf_r+0x1e9c>
    24b4:	00000c93          	li	s9,0
    24b8:	c84ff06f          	j	193c <_vfprintf_r+0x98c>
    24bc:	200af793          	andi	a5,s5,512
    24c0:	160792e3          	bnez	a5,2e24 <_vfprintf_r+0x1e74>
    24c4:	41fc5c93          	srai	s9,s8,0x1f
    24c8:	000c8793          	mv	a5,s9
    24cc:	d68ff06f          	j	1a34 <_vfprintf_r+0xa84>
    24d0:	010af793          	andi	a5,s5,16
    24d4:	78079863          	bnez	a5,2c64 <_vfprintf_r+0x1cb4>
    24d8:	040af793          	andi	a5,s5,64
    24dc:	14079ee3          	bnez	a5,2e38 <_vfprintf_r+0x1e88>
    24e0:	200af813          	andi	a6,s5,512
    24e4:	78080063          	beqz	a6,2c64 <_vfprintf_r+0x1cb4>
    24e8:	01412783          	lw	a5,20(sp)
    24ec:	00c12703          	lw	a4,12(sp)
    24f0:	0007a783          	lw	a5,0(a5)
    24f4:	00e78023          	sb	a4,0(a5)
    24f8:	df0ff06f          	j	1ae8 <_vfprintf_r+0xb38>
    24fc:	01412783          	lw	a5,20(sp)
    2500:	01412c23          	sw	s4,24(sp)
    2504:	06010513          	addi	a0,sp,96
    2508:	0007a703          	lw	a4,0(a5)
    250c:	00478a13          	addi	s4,a5,4
    2510:	01c12823          	sw	t3,16(sp)
    2514:	00072683          	lw	a3,0(a4)
    2518:	01412a23          	sw	s4,20(sp)
    251c:	06d12023          	sw	a3,96(sp)
    2520:	00472683          	lw	a3,4(a4)
    2524:	06d12223          	sw	a3,100(sp)
    2528:	00872683          	lw	a3,8(a4)
    252c:	06d12423          	sw	a3,104(sp)
    2530:	00c72703          	lw	a4,12(a4)
    2534:	06e12623          	sw	a4,108(sp)
    2538:	4e90d0ef          	jal	ra,10220 <__trunctfdf2>
    253c:	01012e03          	lw	t3,16(sp)
    2540:	01812303          	lw	t1,24(sp)
    2544:	02a12623          	sw	a0,44(sp)
    2548:	02b12823          	sw	a1,48(sp)
    254c:	fc1fe06f          	j	150c <_vfprintf_r+0x55c>
    2550:	04012783          	lw	a5,64(sp)
    2554:	0004ce03          	lbu	t3,0(s1)
    2558:	00079463          	bnez	a5,2560 <_vfprintf_r+0x15b0>
    255c:	bfdfe06f          	j	1158 <_vfprintf_r+0x1a8>
    2560:	0007c783          	lbu	a5,0(a5)
    2564:	00079463          	bnez	a5,256c <_vfprintf_r+0x15bc>
    2568:	bf1fe06f          	j	1158 <_vfprintf_r+0x1a8>
    256c:	400aea93          	ori	s5,s5,1024
    2570:	be9fe06f          	j	1158 <_vfprintf_r+0x1a8>
    2574:	00812583          	lw	a1,8(sp)
    2578:	0a010613          	addi	a2,sp,160
    257c:	00098513          	mv	a0,s3
    2580:	04612a23          	sw	t1,84(sp)
    2584:	05c12823          	sw	t3,80(sp)
    2588:	5e9070ef          	jal	ra,a370 <__sprint_r>
    258c:	00050463          	beqz	a0,2594 <_vfprintf_r+0x15e4>
    2590:	ed1fe06f          	j	1460 <_vfprintf_r+0x4b0>
    2594:	0a812a03          	lw	s4,168(sp)
    2598:	05412303          	lw	t1,84(sp)
    259c:	05012e03          	lw	t3,80(sp)
    25a0:	0ac10413          	addi	s0,sp,172
    25a4:	cd1fe06f          	j	1274 <_vfprintf_r+0x2c4>
    25a8:	000a0313          	mv	t1,s4
    25ac:	000a8d93          	mv	s11,s5
    25b0:	c08ff06f          	j	19b8 <_vfprintf_r+0xa08>
    25b4:	0001e797          	auipc	a5,0x1e
    25b8:	b7478793          	addi	a5,a5,-1164 # 20128 <environ+0x9c>
    25bc:	000a0313          	mv	t1,s4
    25c0:	02f12e23          	sw	a5,60(sp)
    25c4:	020af793          	andi	a5,s5,32
    25c8:	12078c63          	beqz	a5,2700 <_vfprintf_r+0x1750>
    25cc:	01412783          	lw	a5,20(sp)
    25d0:	00778a13          	addi	s4,a5,7
    25d4:	ff8a7a13          	andi	s4,s4,-8
    25d8:	000a2c03          	lw	s8,0(s4)
    25dc:	004a2c83          	lw	s9,4(s4)
    25e0:	008a0793          	addi	a5,s4,8
    25e4:	00f12a23          	sw	a5,20(sp)
    25e8:	001af793          	andi	a5,s5,1
    25ec:	00078e63          	beqz	a5,2608 <_vfprintf_r+0x1658>
    25f0:	019c67b3          	or	a5,s8,s9
    25f4:	00078a63          	beqz	a5,2608 <_vfprintf_r+0x1658>
    25f8:	03000793          	li	a5,48
    25fc:	06f10c23          	sb	a5,120(sp)
    2600:	07c10ca3          	sb	t3,121(sp)
    2604:	002aea93          	ori	s5,s5,2
    2608:	bffafd93          	andi	s11,s5,-1025
    260c:	00200793          	li	a5,2
    2610:	b34ff06f          	j	1944 <_vfprintf_r+0x994>
    2614:	0014ce03          	lbu	t3,1(s1)
    2618:	020aea93          	ori	s5,s5,32
    261c:	00148493          	addi	s1,s1,1
    2620:	b39fe06f          	j	1158 <_vfprintf_r+0x1a8>
    2624:	0001e797          	auipc	a5,0x1e
    2628:	af078793          	addi	a5,a5,-1296 # 20114 <environ+0x88>
    262c:	000a0313          	mv	t1,s4
    2630:	02f12e23          	sw	a5,60(sp)
    2634:	f91ff06f          	j	25c4 <_vfprintf_r+0x1614>
    2638:	000a0313          	mv	t1,s4
    263c:	adcff06f          	j	1918 <_vfprintf_r+0x968>
    2640:	00812583          	lw	a1,8(sp)
    2644:	0a010613          	addi	a2,sp,160
    2648:	00098513          	mv	a0,s3
    264c:	525070ef          	jal	ra,a370 <__sprint_r>
    2650:	00050463          	beqz	a0,2658 <_vfprintf_r+0x16a8>
    2654:	e0dfe06f          	j	1460 <_vfprintf_r+0x4b0>
    2658:	0a812703          	lw	a4,168(sp)
    265c:	0ac10413          	addi	s0,sp,172
    2660:	d34ff06f          	j	1b94 <_vfprintf_r+0xbe4>
    2664:	0014ce03          	lbu	t3,1(s1)
    2668:	200aea93          	ori	s5,s5,512
    266c:	00148493          	addi	s1,s1,1
    2670:	ae9fe06f          	j	1158 <_vfprintf_r+0x1a8>
    2674:	00600793          	li	a5,6
    2678:	000a0c13          	mv	s8,s4
    267c:	7747ee63          	bltu	a5,s4,2df8 <_vfprintf_r+0x1e48>
    2680:	01b12a23          	sw	s11,20(sp)
    2684:	00012823          	sw	zero,16(sp)
    2688:	000c0c93          	mv	s9,s8
    268c:	00000613          	li	a2,0
    2690:	00000313          	li	t1,0
    2694:	02012423          	sw	zero,40(sp)
    2698:	02012223          	sw	zero,36(sp)
    269c:	00012c23          	sw	zero,24(sp)
    26a0:	0001eb97          	auipc	s7,0x1e
    26a4:	a9cb8b93          	addi	s7,s7,-1380 # 2013c <environ+0xb0>
    26a8:	b3dfe06f          	j	11e4 <_vfprintf_r+0x234>
    26ac:	00800613          	li	a2,8
    26b0:	00000593          	li	a1,0
    26b4:	09810513          	addi	a0,sp,152
    26b8:	01c12823          	sw	t3,16(sp)
    26bc:	479050ef          	jal	ra,8334 <memset>
    26c0:	01412783          	lw	a5,20(sp)
    26c4:	0ec10b93          	addi	s7,sp,236
    26c8:	09810693          	addi	a3,sp,152
    26cc:	0007a603          	lw	a2,0(a5)
    26d0:	000b8593          	mv	a1,s7
    26d4:	00098513          	mv	a0,s3
    26d8:	7cc010ef          	jal	ra,3ea4 <_wcrtomb_r>
    26dc:	fff00713          	li	a4,-1
    26e0:	01012e03          	lw	t3,16(sp)
    26e4:	00050c93          	mv	s9,a0
    26e8:	00e51463          	bne	a0,a4,26f0 <_vfprintf_r+0x1740>
    26ec:	2780106f          	j	3964 <_vfprintf_r+0x29b4>
    26f0:	fff54893          	not	a7,a0
    26f4:	41f8d893          	srai	a7,a7,0x1f
    26f8:	01157c33          	and	s8,a0,a7
    26fc:	8a0ff06f          	j	179c <_vfprintf_r+0x7ec>
    2700:	01412703          	lw	a4,20(sp)
    2704:	010af793          	andi	a5,s5,16
    2708:	00072c03          	lw	s8,0(a4)
    270c:	00470713          	addi	a4,a4,4
    2710:	00e12a23          	sw	a4,20(sp)
    2714:	08079063          	bnez	a5,2794 <_vfprintf_r+0x17e4>
    2718:	040af793          	andi	a5,s5,64
    271c:	06078863          	beqz	a5,278c <_vfprintf_r+0x17dc>
    2720:	010c1c13          	slli	s8,s8,0x10
    2724:	010c5c13          	srli	s8,s8,0x10
    2728:	00000c93          	li	s9,0
    272c:	ebdff06f          	j	25e8 <_vfprintf_r+0x1638>
    2730:	00000c93          	li	s9,0
    2734:	15010b93          	addi	s7,sp,336
    2738:	a3cff06f          	j	1974 <_vfprintf_r+0x9c4>
    273c:	00812583          	lw	a1,8(sp)
    2740:	0a010613          	addi	a2,sp,160
    2744:	00098513          	mv	a0,s3
    2748:	429070ef          	jal	ra,a370 <__sprint_r>
    274c:	00050463          	beqz	a0,2754 <_vfprintf_r+0x17a4>
    2750:	d11fe06f          	j	1460 <_vfprintf_r+0x4b0>
    2754:	0a812703          	lw	a4,168(sp)
    2758:	0a412c83          	lw	s9,164(sp)
    275c:	0ac10d93          	addi	s11,sp,172
    2760:	f01fe06f          	j	1660 <_vfprintf_r+0x6b0>
    2764:	00812583          	lw	a1,8(sp)
    2768:	0a010613          	addi	a2,sp,160
    276c:	00098513          	mv	a0,s3
    2770:	401070ef          	jal	ra,a370 <__sprint_r>
    2774:	00050463          	beqz	a0,277c <_vfprintf_r+0x17cc>
    2778:	ce9fe06f          	j	1460 <_vfprintf_r+0x4b0>
    277c:	0a812703          	lw	a4,168(sp)
    2780:	0a412c83          	lw	s9,164(sp)
    2784:	0ac10d93          	addi	s11,sp,172
    2788:	f09fe06f          	j	1690 <_vfprintf_r+0x6e0>
    278c:	200af793          	andi	a5,s5,512
    2790:	68079463          	bnez	a5,2e18 <_vfprintf_r+0x1e68>
    2794:	00000c93          	li	s9,0
    2798:	e51ff06f          	j	25e8 <_vfprintf_r+0x1638>
    279c:	ccccd8b7          	lui	a7,0xccccd
    27a0:	04012703          	lw	a4,64(sp)
    27a4:	400dff13          	andi	t5,s11,1024
    27a8:	00000613          	li	a2,0
    27ac:	15010593          	addi	a1,sp,336
    27b0:	00500813          	li	a6,5
    27b4:	ccd88693          	addi	a3,a7,-819 # cccccccd <_stack+0xccc8cccd>
    27b8:	ccc88a93          	addi	s5,a7,-820
    27bc:	0ff00a13          	li	s4,255
    27c0:	0540006f          	j	2814 <_vfprintf_r+0x1864>
    27c4:	018bb7b3          	sltu	a5,s7,s8
    27c8:	00fb87b3          	add	a5,s7,a5
    27cc:	0307f7b3          	remu	a5,a5,a6
    27d0:	40fc07b3          	sub	a5,s8,a5
    27d4:	00fc35b3          	sltu	a1,s8,a5
    27d8:	40bc85b3          	sub	a1,s9,a1
    27dc:	03578eb3          	mul	t4,a5,s5
    27e0:	02d585b3          	mul	a1,a1,a3
    27e4:	02d7b533          	mulhu	a0,a5,a3
    27e8:	01d585b3          	add	a1,a1,t4
    27ec:	02d787b3          	mul	a5,a5,a3
    27f0:	00a585b3          	add	a1,a1,a0
    27f4:	01f59513          	slli	a0,a1,0x1f
    27f8:	0015d593          	srli	a1,a1,0x1
    27fc:	0017d793          	srli	a5,a5,0x1
    2800:	00f567b3          	or	a5,a0,a5
    2804:	6e0c8ee3          	beqz	s9,3700 <_vfprintf_r+0x2750>
    2808:	00058c93          	mv	s9,a1
    280c:	00078c13          	mv	s8,a5
    2810:	00088593          	mv	a1,a7
    2814:	019c0bb3          	add	s7,s8,s9
    2818:	018bb7b3          	sltu	a5,s7,s8
    281c:	00fb87b3          	add	a5,s7,a5
    2820:	0307f7b3          	remu	a5,a5,a6
    2824:	fff58893          	addi	a7,a1,-1
    2828:	00160613          	addi	a2,a2,1
    282c:	40fc07b3          	sub	a5,s8,a5
    2830:	00fc3533          	sltu	a0,s8,a5
    2834:	40ac8533          	sub	a0,s9,a0
    2838:	02d7beb3          	mulhu	t4,a5,a3
    283c:	02d50533          	mul	a0,a0,a3
    2840:	02d787b3          	mul	a5,a5,a3
    2844:	01d50533          	add	a0,a0,t4
    2848:	01f51513          	slli	a0,a0,0x1f
    284c:	0017d793          	srli	a5,a5,0x1
    2850:	00f567b3          	or	a5,a0,a5
    2854:	00279513          	slli	a0,a5,0x2
    2858:	00f507b3          	add	a5,a0,a5
    285c:	00179793          	slli	a5,a5,0x1
    2860:	40fc07b3          	sub	a5,s8,a5
    2864:	03078793          	addi	a5,a5,48
    2868:	fef58fa3          	sb	a5,-1(a1)
    286c:	f40f0ce3          	beqz	t5,27c4 <_vfprintf_r+0x1814>
    2870:	00074783          	lbu	a5,0(a4)
    2874:	f4f618e3          	bne	a2,a5,27c4 <_vfprintf_r+0x1814>
    2878:	f54606e3          	beq	a2,s4,27c4 <_vfprintf_r+0x1814>
    287c:	300c94e3          	bnez	s9,3384 <_vfprintf_r+0x23d4>
    2880:	00900793          	li	a5,9
    2884:	3187e0e3          	bltu	a5,s8,3384 <_vfprintf_r+0x23d4>
    2888:	00088b93          	mv	s7,a7
    288c:	15010793          	addi	a5,sp,336
    2890:	04e12023          	sw	a4,64(sp)
    2894:	02c12023          	sw	a2,32(sp)
    2898:	41778cb3          	sub	s9,a5,s7
    289c:	000d8a93          	mv	s5,s11
    28a0:	8d4ff06f          	j	1974 <_vfprintf_r+0x9c4>
    28a4:	00812583          	lw	a1,8(sp)
    28a8:	0a010613          	addi	a2,sp,160
    28ac:	00098513          	mv	a0,s3
    28b0:	04612c23          	sw	t1,88(sp)
    28b4:	05c12a23          	sw	t3,84(sp)
    28b8:	04512823          	sw	t0,80(sp)
    28bc:	2b5070ef          	jal	ra,a370 <__sprint_r>
    28c0:	00050463          	beqz	a0,28c8 <_vfprintf_r+0x1918>
    28c4:	b9dfe06f          	j	1460 <_vfprintf_r+0x4b0>
    28c8:	07714603          	lbu	a2,119(sp)
    28cc:	05812303          	lw	t1,88(sp)
    28d0:	05412e03          	lw	t3,84(sp)
    28d4:	05012283          	lw	t0,80(sp)
    28d8:	0ac10413          	addi	s0,sp,172
    28dc:	925fe06f          	j	1200 <_vfprintf_r+0x250>
    28e0:	02c12f03          	lw	t5,44(sp)
    28e4:	03012703          	lw	a4,48(sp)
    28e8:	00612c23          	sw	t1,24(sp)
    28ec:	000f0613          	mv	a2,t5
    28f0:	000f0513          	mv	a0,t5
    28f4:	00070693          	mv	a3,a4
    28f8:	00070593          	mv	a1,a4
    28fc:	01c12823          	sw	t3,16(sp)
    2900:	6cc0d0ef          	jal	ra,ffcc <__unorddf2>
    2904:	01012e03          	lw	t3,16(sp)
    2908:	01812303          	lw	t1,24(sp)
    290c:	00050463          	beqz	a0,2914 <_vfprintf_r+0x1964>
    2910:	1e40106f          	j	3af4 <_vfprintf_r+0x2b44>
    2914:	06100713          	li	a4,97
    2918:	04ee0663          	beq	t3,a4,2964 <_vfprintf_r+0x19b4>
    291c:	04100713          	li	a4,65
    2920:	05800793          	li	a5,88
    2924:	04ee0263          	beq	t3,a4,2968 <_vfprintf_r+0x19b8>
    2928:	fff00713          	li	a4,-1
    292c:	00e31463          	bne	t1,a4,2934 <_vfprintf_r+0x1984>
    2930:	0c00106f          	j	39f0 <_vfprintf_r+0x2a40>
    2934:	fdfe7713          	andi	a4,t3,-33
    2938:	04700693          	li	a3,71
    293c:	00d71463          	bne	a4,a3,2944 <_vfprintf_r+0x1994>
    2940:	7bd0006f          	j	38fc <_vfprintf_r+0x294c>
    2944:	03012d83          	lw	s11,48(sp)
    2948:	100ae793          	ori	a5,s5,256
    294c:	04f12823          	sw	a5,80(sp)
    2950:	03512223          	sw	s5,36(sp)
    2954:	500dc263          	bltz	s11,2e58 <_vfprintf_r+0x1ea8>
    2958:	04012a23          	sw	zero,84(sp)
    295c:	00012823          	sw	zero,16(sp)
    2960:	0500006f          	j	29b0 <_vfprintf_r+0x1a00>
    2964:	07800793          	li	a5,120
    2968:	03000713          	li	a4,48
    296c:	06f10ca3          	sb	a5,121(sp)
    2970:	002ae793          	ori	a5,s5,2
    2974:	06e10c23          	sb	a4,120(sp)
    2978:	02f12223          	sw	a5,36(sp)
    297c:	06300713          	li	a4,99
    2980:	00012823          	sw	zero,16(sp)
    2984:	0ec10b93          	addi	s7,sp,236
    2988:	6a674c63          	blt	a4,t1,3040 <_vfprintf_r+0x2090>
    298c:	102ae793          	ori	a5,s5,258
    2990:	04f12823          	sw	a5,80(sp)
    2994:	03012783          	lw	a5,48(sp)
    2998:	04012a23          	sw	zero,84(sp)
    299c:	00078d93          	mv	s11,a5
    29a0:	4a07ce63          	bltz	a5,2e5c <_vfprintf_r+0x1eac>
    29a4:	06100713          	li	a4,97
    29a8:	00ee1463          	bne	t3,a4,29b0 <_vfprintf_r+0x1a00>
    29ac:	0d00106f          	j	3a7c <_vfprintf_r+0x2acc>
    29b0:	fbfe0713          	addi	a4,t3,-65
    29b4:	02500693          	li	a3,37
    29b8:	02e6e063          	bltu	a3,a4,29d8 <_vfprintf_r+0x1a28>
    29bc:	0001e697          	auipc	a3,0x1e
    29c0:	8f868693          	addi	a3,a3,-1800 # 202b4 <environ+0x228>
    29c4:	00271713          	slli	a4,a4,0x2
    29c8:	00d70733          	add	a4,a4,a3
    29cc:	00072703          	lw	a4,0(a4)
    29d0:	00d70733          	add	a4,a4,a3
    29d4:	00070067          	jr	a4
    29d8:	00030c93          	mv	s9,t1
    29dc:	00200693          	li	a3,2
    29e0:	02c12703          	lw	a4,44(sp)
    29e4:	09810893          	addi	a7,sp,152
    29e8:	08410813          	addi	a6,sp,132
    29ec:	00070513          	mv	a0,a4
    29f0:	00050593          	mv	a1,a0
    29f4:	000c8713          	mv	a4,s9
    29f8:	07c10793          	addi	a5,sp,124
    29fc:	000d8613          	mv	a2,s11
    2a00:	00098513          	mv	a0,s3
    2a04:	02612023          	sw	t1,32(sp)
    2a08:	01c12c23          	sw	t3,24(sp)
    2a0c:	11d010ef          	jal	ra,4328 <_dtoa_r>
    2a10:	01812e03          	lw	t3,24(sp)
    2a14:	06700713          	li	a4,103
    2a18:	02012303          	lw	t1,32(sp)
    2a1c:	00050b93          	mv	s7,a0
    2a20:	4cee0063          	beq	t3,a4,2ee0 <_vfprintf_r+0x1f30>
    2a24:	04700713          	li	a4,71
    2a28:	4aee0c63          	beq	t3,a4,2ee0 <_vfprintf_r+0x1f30>
    2a2c:	fdfe7a13          	andi	s4,t3,-33
    2a30:	04600693          	li	a3,70
    2a34:	01950c33          	add	s8,a0,s9
    2a38:	00da1c63          	bne	s4,a3,2a50 <_vfprintf_r+0x1aa0>
    2a3c:	00054603          	lbu	a2,0(a0)
    2a40:	03000693          	li	a3,48
    2a44:	62d60463          	beq	a2,a3,306c <_vfprintf_r+0x20bc>
    2a48:	07c12683          	lw	a3,124(sp)
    2a4c:	00dc0c33          	add	s8,s8,a3
    2a50:	02c12683          	lw	a3,44(sp)
    2a54:	000d8593          	mv	a1,s11
    2a58:	00000613          	li	a2,0
    2a5c:	00068513          	mv	a0,a3
    2a60:	00000693          	li	a3,0
    2a64:	02612023          	sw	t1,32(sp)
    2a68:	01c12c23          	sw	t3,24(sp)
    2a6c:	2980c0ef          	jal	ra,ed04 <__eqdf2>
    2a70:	01812e03          	lw	t3,24(sp)
    2a74:	02012303          	lw	t1,32(sp)
    2a78:	000c0a93          	mv	s5,s8
    2a7c:	02050263          	beqz	a0,2aa0 <_vfprintf_r+0x1af0>
    2a80:	09812a83          	lw	s5,152(sp)
    2a84:	018afe63          	bgeu	s5,s8,2aa0 <_vfprintf_r+0x1af0>
    2a88:	03000613          	li	a2,48
    2a8c:	001a8793          	addi	a5,s5,1
    2a90:	08f12c23          	sw	a5,152(sp)
    2a94:	00ca8023          	sb	a2,0(s5)
    2a98:	09812a83          	lw	s5,152(sp)
    2a9c:	ff8ae8e3          	bltu	s5,s8,2a8c <_vfprintf_r+0x1adc>
    2aa0:	417a87b3          	sub	a5,s5,s7
    2aa4:	02f12023          	sw	a5,32(sp)
    2aa8:	07c12603          	lw	a2,124(sp)
    2aac:	04700713          	li	a4,71
    2ab0:	00c12c23          	sw	a2,24(sp)
    2ab4:	44ea0463          	beq	s4,a4,2efc <_vfprintf_r+0x1f4c>
    2ab8:	04600713          	li	a4,70
    2abc:	48ea00e3          	beq	s4,a4,373c <_vfprintf_r+0x278c>
    2ac0:	fff60313          	addi	t1,a2,-1
    2ac4:	06612e23          	sw	t1,124(sp)
    2ac8:	06100713          	li	a4,97
    2acc:	00ee1463          	bne	t3,a4,2ad4 <_vfprintf_r+0x1b24>
    2ad0:	10c0106f          	j	3bdc <_vfprintf_r+0x2c2c>
    2ad4:	04100693          	li	a3,65
    2ad8:	05000713          	li	a4,80
    2adc:	42de1e63          	bne	t3,a3,2f18 <_vfprintf_r+0x1f68>
    2ae0:	00100693          	li	a3,1
    2ae4:	43c0006f          	j	2f20 <_vfprintf_r+0x1f70>
    2ae8:	00812583          	lw	a1,8(sp)
    2aec:	0a010613          	addi	a2,sp,160
    2af0:	00098513          	mv	a0,s3
    2af4:	07d070ef          	jal	ra,a370 <__sprint_r>
    2af8:	00050463          	beqz	a0,2b00 <_vfprintf_r+0x1b50>
    2afc:	965fe06f          	j	1460 <_vfprintf_r+0x4b0>
    2b00:	0a812a03          	lw	s4,168(sp)
    2b04:	0ac10413          	addi	s0,sp,172
    2b08:	850ff06f          	j	1b58 <_vfprintf_r+0xba8>
    2b0c:	00800613          	li	a2,8
    2b10:	00000593          	li	a1,0
    2b14:	09810513          	addi	a0,sp,152
    2b18:	00612a23          	sw	t1,20(sp)
    2b1c:	01c12823          	sw	t3,16(sp)
    2b20:	09712223          	sw	s7,132(sp)
    2b24:	011050ef          	jal	ra,8334 <memset>
    2b28:	01412303          	lw	t1,20(sp)
    2b2c:	fff00713          	li	a4,-1
    2b30:	01012e03          	lw	t3,16(sp)
    2b34:	7ae30c63          	beq	t1,a4,32ec <_vfprintf_r+0x233c>
    2b38:	00000c93          	li	s9,0
    2b3c:	00912823          	sw	s1,16(sp)
    2b40:	000b8c13          	mv	s8,s7
    2b44:	fff00a13          	li	s4,-1
    2b48:	00040b93          	mv	s7,s0
    2b4c:	01c12a23          	sw	t3,20(sp)
    2b50:	000c8493          	mv	s1,s9
    2b54:	00030413          	mv	s0,t1
    2b58:	02c0006f          	j	2b84 <_vfprintf_r+0x1bd4>
    2b5c:	09810693          	addi	a3,sp,152
    2b60:	0ec10593          	addi	a1,sp,236
    2b64:	00098513          	mv	a0,s3
    2b68:	33c010ef          	jal	ra,3ea4 <_wcrtomb_r>
    2b6c:	5f450ce3          	beq	a0,s4,3964 <_vfprintf_r+0x29b4>
    2b70:	00a487b3          	add	a5,s1,a0
    2b74:	02f44063          	blt	s0,a5,2b94 <_vfprintf_r+0x1be4>
    2b78:	004c8c93          	addi	s9,s9,4
    2b7c:	74878ee3          	beq	a5,s0,3ad8 <_vfprintf_r+0x2b28>
    2b80:	00078493          	mv	s1,a5
    2b84:	08412783          	lw	a5,132(sp)
    2b88:	019787b3          	add	a5,a5,s9
    2b8c:	0007a603          	lw	a2,0(a5)
    2b90:	fc0616e3          	bnez	a2,2b5c <_vfprintf_r+0x1bac>
    2b94:	00048c93          	mv	s9,s1
    2b98:	01412e03          	lw	t3,20(sp)
    2b9c:	01012483          	lw	s1,16(sp)
    2ba0:	000b8413          	mv	s0,s7
    2ba4:	000c0b93          	mv	s7,s8
    2ba8:	2c0c82e3          	beqz	s9,366c <_vfprintf_r+0x26bc>
    2bac:	06300793          	li	a5,99
    2bb0:	3f97dee3          	bge	a5,s9,37ac <_vfprintf_r+0x27fc>
    2bb4:	001c8593          	addi	a1,s9,1
    2bb8:	00098513          	mv	a0,s3
    2bbc:	01c12823          	sw	t3,16(sp)
    2bc0:	925fd0ef          	jal	ra,4e4 <_malloc_r>
    2bc4:	01012e03          	lw	t3,16(sp)
    2bc8:	00050b93          	mv	s7,a0
    2bcc:	58050ce3          	beqz	a0,3964 <_vfprintf_r+0x29b4>
    2bd0:	00a12823          	sw	a0,16(sp)
    2bd4:	00800613          	li	a2,8
    2bd8:	00000593          	li	a1,0
    2bdc:	09810513          	addi	a0,sp,152
    2be0:	01c12a23          	sw	t3,20(sp)
    2be4:	750050ef          	jal	ra,8334 <memset>
    2be8:	09810713          	addi	a4,sp,152
    2bec:	000c8693          	mv	a3,s9
    2bf0:	08410613          	addi	a2,sp,132
    2bf4:	000b8593          	mv	a1,s7
    2bf8:	00098513          	mv	a0,s3
    2bfc:	3dc010ef          	jal	ra,3fd8 <_wcsrtombs_r>
    2c00:	01412e03          	lw	t3,20(sp)
    2c04:	00ac8463          	beq	s9,a0,2c0c <_vfprintf_r+0x1c5c>
    2c08:	7ed0006f          	j	3bf4 <_vfprintf_r+0x2c44>
    2c0c:	019b8733          	add	a4,s7,s9
    2c10:	00070023          	sb	zero,0(a4)
    2c14:	07714603          	lbu	a2,119(sp)
    2c18:	fffcc893          	not	a7,s9
    2c1c:	41f8d893          	srai	a7,a7,0x1f
    2c20:	01b12a23          	sw	s11,20(sp)
    2c24:	02012423          	sw	zero,40(sp)
    2c28:	02012223          	sw	zero,36(sp)
    2c2c:	00012c23          	sw	zero,24(sp)
    2c30:	011cfc33          	and	s8,s9,a7
    2c34:	00000313          	li	t1,0
    2c38:	00061463          	bnez	a2,2c40 <_vfprintf_r+0x1c90>
    2c3c:	da8fe06f          	j	11e4 <_vfprintf_r+0x234>
    2c40:	9a5fe06f          	j	15e4 <_vfprintf_r+0x634>
    2c44:	00048693          	mv	a3,s1
    2c48:	00090493          	mv	s1,s2
    2c4c:	000a0913          	mv	s2,s4
    2c50:	00068a13          	mv	s4,a3
    2c54:	01970733          	add	a4,a4,s9
    2c58:	00178793          	addi	a5,a5,1
    2c5c:	01442023          	sw	s4,0(s0)
    2c60:	e34fe06f          	j	1294 <_vfprintf_r+0x2e4>
    2c64:	01412783          	lw	a5,20(sp)
    2c68:	00c12703          	lw	a4,12(sp)
    2c6c:	0007a783          	lw	a5,0(a5)
    2c70:	00e7a023          	sw	a4,0(a5)
    2c74:	e75fe06f          	j	1ae8 <_vfprintf_r+0xb38>
    2c78:	00040793          	mv	a5,s0
    2c7c:	000a0413          	mv	s0,s4
    2c80:	00078a13          	mv	s4,a5
    2c84:	00870733          	add	a4,a4,s0
    2c88:	001c8c93          	addi	s9,s9,1
    2c8c:	014da023          	sw	s4,0(s11)
    2c90:	a41fe06f          	j	16d0 <_vfprintf_r+0x720>
    2c94:	01000593          	li	a1,16
    2c98:	000a0713          	mv	a4,s4
    2c9c:	0a412603          	lw	a2,164(sp)
    2ca0:	0001da17          	auipc	s4,0x1d
    2ca4:	6aca0a13          	addi	s4,s4,1708 # 2034c <zeroes.0>
    2ca8:	0f95da63          	bge	a1,s9,2d9c <_vfprintf_r+0x1dec>
    2cac:	000a0793          	mv	a5,s4
    2cb0:	00812d83          	lw	s11,8(sp)
    2cb4:	00090a13          	mv	s4,s2
    2cb8:	01000e13          	li	t3,16
    2cbc:	00048913          	mv	s2,s1
    2cc0:	00700f13          	li	t5,7
    2cc4:	04612823          	sw	t1,80(sp)
    2cc8:	00078493          	mv	s1,a5
    2ccc:	00c0006f          	j	2cd8 <_vfprintf_r+0x1d28>
    2cd0:	ff0c8c93          	addi	s9,s9,-16
    2cd4:	0b9e5a63          	bge	t3,s9,2d88 <_vfprintf_r+0x1dd8>
    2cd8:	01070713          	addi	a4,a4,16
    2cdc:	00160613          	addi	a2,a2,1
    2ce0:	00942023          	sw	s1,0(s0)
    2ce4:	01c42223          	sw	t3,4(s0)
    2ce8:	0ae12423          	sw	a4,168(sp)
    2cec:	0ac12223          	sw	a2,164(sp)
    2cf0:	00840413          	addi	s0,s0,8
    2cf4:	fccf5ee3          	bge	t5,a2,2cd0 <_vfprintf_r+0x1d20>
    2cf8:	0a010613          	addi	a2,sp,160
    2cfc:	000d8593          	mv	a1,s11
    2d00:	00098513          	mv	a0,s3
    2d04:	66c070ef          	jal	ra,a370 <__sprint_r>
    2d08:	00050463          	beqz	a0,2d10 <_vfprintf_r+0x1d60>
    2d0c:	f54fe06f          	j	1460 <_vfprintf_r+0x4b0>
    2d10:	0a812703          	lw	a4,168(sp)
    2d14:	0a412603          	lw	a2,164(sp)
    2d18:	0ac10413          	addi	s0,sp,172
    2d1c:	00700f13          	li	t5,7
    2d20:	01000e13          	li	t3,16
    2d24:	fadff06f          	j	2cd0 <_vfprintf_r+0x1d20>
    2d28:	03812683          	lw	a3,56(sp)
    2d2c:	03412783          	lw	a5,52(sp)
    2d30:	00700613          	li	a2,7
    2d34:	00d42023          	sw	a3,0(s0)
    2d38:	0a412683          	lw	a3,164(sp)
    2d3c:	00e78733          	add	a4,a5,a4
    2d40:	00f42223          	sw	a5,4(s0)
    2d44:	00168693          	addi	a3,a3,1
    2d48:	0ae12423          	sw	a4,168(sp)
    2d4c:	0ad12223          	sw	a3,164(sp)
    2d50:	00840413          	addi	s0,s0,8
    2d54:	14d64663          	blt	a2,a3,2ea0 <_vfprintf_r+0x1ef0>
    2d58:	2605c0e3          	bltz	a1,37b8 <_vfprintf_r+0x2808>
    2d5c:	02012783          	lw	a5,32(sp)
    2d60:	00168693          	addi	a3,a3,1
    2d64:	01742023          	sw	s7,0(s0)
    2d68:	00e78733          	add	a4,a5,a4
    2d6c:	00f42223          	sw	a5,4(s0)
    2d70:	0ae12423          	sw	a4,168(sp)
    2d74:	0ad12223          	sw	a3,164(sp)
    2d78:	00700793          	li	a5,7
    2d7c:	00d7c463          	blt	a5,a3,2d84 <_vfprintf_r+0x1dd4>
    2d80:	d28fe06f          	j	12a8 <_vfprintf_r+0x2f8>
    2d84:	991fe06f          	j	1714 <_vfprintf_r+0x764>
    2d88:	05012303          	lw	t1,80(sp)
    2d8c:	00048793          	mv	a5,s1
    2d90:	00090493          	mv	s1,s2
    2d94:	000a0913          	mv	s2,s4
    2d98:	00078a13          	mv	s4,a5
    2d9c:	00ec8733          	add	a4,s9,a4
    2da0:	00160613          	addi	a2,a2,1
    2da4:	01442023          	sw	s4,0(s0)
    2da8:	01942223          	sw	s9,4(s0)
    2dac:	0ae12423          	sw	a4,168(sp)
    2db0:	0ac12223          	sw	a2,164(sp)
    2db4:	00700693          	li	a3,7
    2db8:	24c6ce63          	blt	a3,a2,3014 <_vfprintf_r+0x2064>
    2dbc:	00840413          	addi	s0,s0,8
    2dc0:	00070a13          	mv	s4,a4
    2dc4:	b20ff06f          	j	20e4 <_vfprintf_r+0x1134>
    2dc8:	00068c93          	mv	s9,a3
    2dcc:	b84ff06f          	j	2150 <_vfprintf_r+0x11a0>
    2dd0:	00812583          	lw	a1,8(sp)
    2dd4:	0a010613          	addi	a2,sp,160
    2dd8:	00098513          	mv	a0,s3
    2ddc:	594070ef          	jal	ra,a370 <__sprint_r>
    2de0:	00050463          	beqz	a0,2de8 <_vfprintf_r+0x1e38>
    2de4:	e7cfe06f          	j	1460 <_vfprintf_r+0x4b0>
    2de8:	07c12583          	lw	a1,124(sp)
    2dec:	0a812703          	lw	a4,168(sp)
    2df0:	0ac10413          	addi	s0,sp,172
    2df4:	e44ff06f          	j	2438 <_vfprintf_r+0x1488>
    2df8:	00600c13          	li	s8,6
    2dfc:	885ff06f          	j	2680 <_vfprintf_r+0x16d0>
    2e00:	40d786b3          	sub	a3,a5,a3
    2e04:	41730cb3          	sub	s9,t1,s7
    2e08:	000a0713          	mv	a4,s4
    2e0c:	b796da63          	bge	a3,s9,2180 <_vfprintf_r+0x11d0>
    2e10:	00068c93          	mv	s9,a3
    2e14:	b6cff06f          	j	2180 <_vfprintf_r+0x11d0>
    2e18:	0ffc7c13          	zext.b	s8,s8
    2e1c:	00000c93          	li	s9,0
    2e20:	fc8ff06f          	j	25e8 <_vfprintf_r+0x1638>
    2e24:	018c1c13          	slli	s8,s8,0x18
    2e28:	418c5c13          	srai	s8,s8,0x18
    2e2c:	41fc5c93          	srai	s9,s8,0x1f
    2e30:	000c8793          	mv	a5,s9
    2e34:	c01fe06f          	j	1a34 <_vfprintf_r+0xa84>
    2e38:	01412783          	lw	a5,20(sp)
    2e3c:	00c12703          	lw	a4,12(sp)
    2e40:	0007a783          	lw	a5,0(a5)
    2e44:	00e79023          	sh	a4,0(a5)
    2e48:	ca1fe06f          	j	1ae8 <_vfprintf_r+0xb38>
    2e4c:	0ffc7c13          	zext.b	s8,s8
    2e50:	00000c93          	li	s9,0
    2e54:	ae9fe06f          	j	193c <_vfprintf_r+0x98c>
    2e58:	00012823          	sw	zero,16(sp)
    2e5c:	03012783          	lw	a5,48(sp)
    2e60:	80000737          	lui	a4,0x80000
    2e64:	00f74db3          	xor	s11,a4,a5
    2e68:	02d00793          	li	a5,45
    2e6c:	04f12a23          	sw	a5,84(sp)
    2e70:	b35ff06f          	j	29a4 <_vfprintf_r+0x19f4>
    2e74:	00812583          	lw	a1,8(sp)
    2e78:	0a010613          	addi	a2,sp,160
    2e7c:	00098513          	mv	a0,s3
    2e80:	4f0070ef          	jal	ra,a370 <__sprint_r>
    2e84:	00051463          	bnez	a0,2e8c <_vfprintf_r+0x1edc>
    2e88:	d98fe06f          	j	1420 <_vfprintf_r+0x470>
    2e8c:	de8fe06f          	j	1474 <_vfprintf_r+0x4c4>
    2e90:	000b8513          	mv	a0,s7
    2e94:	010070ef          	jal	ra,9ea4 <strlen>
    2e98:	00050c93          	mv	s9,a0
    2e9c:	991fe06f          	j	182c <_vfprintf_r+0x87c>
    2ea0:	00812583          	lw	a1,8(sp)
    2ea4:	0a010613          	addi	a2,sp,160
    2ea8:	00098513          	mv	a0,s3
    2eac:	4c4070ef          	jal	ra,a370 <__sprint_r>
    2eb0:	00050463          	beqz	a0,2eb8 <_vfprintf_r+0x1f08>
    2eb4:	dacfe06f          	j	1460 <_vfprintf_r+0x4b0>
    2eb8:	07c12583          	lw	a1,124(sp)
    2ebc:	0a812703          	lw	a4,168(sp)
    2ec0:	0a412683          	lw	a3,164(sp)
    2ec4:	0ac10413          	addi	s0,sp,172
    2ec8:	e91ff06f          	j	2d58 <_vfprintf_r+0x1da8>
    2ecc:	05862503          	lw	a0,88(a2)
    2ed0:	00f12623          	sw	a5,12(sp)
    2ed4:	6a4040ef          	jal	ra,7578 <__retarget_lock_release_recursive>
    2ed8:	00c12783          	lw	a5,12(sp)
    2edc:	c74fe06f          	j	1350 <_vfprintf_r+0x3a0>
    2ee0:	02412783          	lw	a5,36(sp)
    2ee4:	0017f713          	andi	a4,a5,1
    2ee8:	140712e3          	bnez	a4,382c <_vfprintf_r+0x287c>
    2eec:	09812a83          	lw	s5,152(sp)
    2ef0:	07c12603          	lw	a2,124(sp)
    2ef4:	417a87b3          	sub	a5,s5,s7
    2ef8:	02f12023          	sw	a5,32(sp)
    2efc:	ffd00713          	li	a4,-3
    2f00:	00c12c23          	sw	a2,24(sp)
    2f04:	00e64463          	blt	a2,a4,2f0c <_vfprintf_r+0x1f5c>
    2f08:	42c35663          	bge	t1,a2,3334 <_vfprintf_r+0x2384>
    2f0c:	fff60313          	addi	t1,a2,-1
    2f10:	ffee0e13          	addi	t3,t3,-2
    2f14:	06612e23          	sw	t1,124(sp)
    2f18:	0ffe7713          	zext.b	a4,t3
    2f1c:	00000693          	li	a3,0
    2f20:	08e10423          	sb	a4,136(sp)
    2f24:	02b00713          	li	a4,43
    2f28:	00035863          	bgez	t1,2f38 <_vfprintf_r+0x1f88>
    2f2c:	00100313          	li	t1,1
    2f30:	40c30333          	sub	t1,t1,a2
    2f34:	02d00713          	li	a4,45
    2f38:	08e104a3          	sb	a4,137(sp)
    2f3c:	00900713          	li	a4,9
    2f40:	22675ce3          	bge	a4,t1,3978 <_vfprintf_r+0x29c8>
    2f44:	09f10893          	addi	a7,sp,159
    2f48:	00088693          	mv	a3,a7
    2f4c:	00a00613          	li	a2,10
    2f50:	06300513          	li	a0,99
    2f54:	02c367b3          	rem	a5,t1,a2
    2f58:	00068813          	mv	a6,a3
    2f5c:	00030713          	mv	a4,t1
    2f60:	fff68693          	addi	a3,a3,-1
    2f64:	03078793          	addi	a5,a5,48
    2f68:	fef80fa3          	sb	a5,-1(a6)
    2f6c:	02c34333          	div	t1,t1,a2
    2f70:	fee542e3          	blt	a0,a4,2f54 <_vfprintf_r+0x1fa4>
    2f74:	03030313          	addi	t1,t1,48
    2f78:	ffe80713          	addi	a4,a6,-2
    2f7c:	fe668fa3          	sb	t1,-1(a3)
    2f80:	451778e3          	bgeu	a4,a7,3bd0 <_vfprintf_r+0x2c20>
    2f84:	08a10693          	addi	a3,sp,138
    2f88:	00074783          	lbu	a5,0(a4) # 80000000 <_stack+0x7ffc0000>
    2f8c:	00170713          	addi	a4,a4,1
    2f90:	00168693          	addi	a3,a3,1
    2f94:	fef68fa3          	sb	a5,-1(a3)
    2f98:	ff1718e3          	bne	a4,a7,2f88 <_vfprintf_r+0x1fd8>
    2f9c:	0a110713          	addi	a4,sp,161
    2fa0:	08a10793          	addi	a5,sp,138
    2fa4:	41070733          	sub	a4,a4,a6
    2fa8:	00e78733          	add	a4,a5,a4
    2fac:	08810693          	addi	a3,sp,136
    2fb0:	40d707b3          	sub	a5,a4,a3
    2fb4:	04f12223          	sw	a5,68(sp)
    2fb8:	02012783          	lw	a5,32(sp)
    2fbc:	04412683          	lw	a3,68(sp)
    2fc0:	00100713          	li	a4,1
    2fc4:	00d78cb3          	add	s9,a5,a3
    2fc8:	20f75ce3          	bge	a4,a5,39e0 <_vfprintf_r+0x2a30>
    2fcc:	03412783          	lw	a5,52(sp)
    2fd0:	00fc8cb3          	add	s9,s9,a5
    2fd4:	02412783          	lw	a5,36(sp)
    2fd8:	fffcc893          	not	a7,s9
    2fdc:	41f8d893          	srai	a7,a7,0x1f
    2fe0:	bff7f813          	andi	a6,a5,-1025
    2fe4:	10086a93          	ori	s5,a6,256
    2fe8:	011cfc33          	and	s8,s9,a7
    2fec:	02012423          	sw	zero,40(sp)
    2ff0:	02012223          	sw	zero,36(sp)
    2ff4:	00012c23          	sw	zero,24(sp)
    2ff8:	05412783          	lw	a5,84(sp)
    2ffc:	2c079c63          	bnez	a5,32d4 <_vfprintf_r+0x2324>
    3000:	07714603          	lbu	a2,119(sp)
    3004:	00000313          	li	t1,0
    3008:	00061463          	bnez	a2,3010 <_vfprintf_r+0x2060>
    300c:	9d8fe06f          	j	11e4 <_vfprintf_r+0x234>
    3010:	dd4fe06f          	j	15e4 <_vfprintf_r+0x634>
    3014:	00812583          	lw	a1,8(sp)
    3018:	0a010613          	addi	a2,sp,160
    301c:	00098513          	mv	a0,s3
    3020:	04612823          	sw	t1,80(sp)
    3024:	34c070ef          	jal	ra,a370 <__sprint_r>
    3028:	00050463          	beqz	a0,3030 <_vfprintf_r+0x2080>
    302c:	c34fe06f          	j	1460 <_vfprintf_r+0x4b0>
    3030:	0a812a03          	lw	s4,168(sp)
    3034:	05012303          	lw	t1,80(sp)
    3038:	0ac10413          	addi	s0,sp,172
    303c:	8a8ff06f          	j	20e4 <_vfprintf_r+0x1134>
    3040:	00130593          	addi	a1,t1,1
    3044:	00098513          	mv	a0,s3
    3048:	01c12c23          	sw	t3,24(sp)
    304c:	00612823          	sw	t1,16(sp)
    3050:	c94fd0ef          	jal	ra,4e4 <_malloc_r>
    3054:	01012303          	lw	t1,16(sp)
    3058:	01812e03          	lw	t3,24(sp)
    305c:	00050b93          	mv	s7,a0
    3060:	100502e3          	beqz	a0,3964 <_vfprintf_r+0x29b4>
    3064:	00a12823          	sw	a0,16(sp)
    3068:	925ff06f          	j	298c <_vfprintf_r+0x19dc>
    306c:	02c12603          	lw	a2,44(sp)
    3070:	000d8593          	mv	a1,s11
    3074:	00000693          	li	a3,0
    3078:	00060513          	mv	a0,a2
    307c:	00000613          	li	a2,0
    3080:	02612023          	sw	t1,32(sp)
    3084:	01c12c23          	sw	t3,24(sp)
    3088:	47d0b0ef          	jal	ra,ed04 <__eqdf2>
    308c:	01812e03          	lw	t3,24(sp)
    3090:	02012303          	lw	t1,32(sp)
    3094:	9a050ae3          	beqz	a0,2a48 <_vfprintf_r+0x1a98>
    3098:	00100693          	li	a3,1
    309c:	419686b3          	sub	a3,a3,s9
    30a0:	06d12e23          	sw	a3,124(sp)
    30a4:	9a9ff06f          	j	2a4c <_vfprintf_r+0x1a9c>
    30a8:	02c12703          	lw	a4,44(sp)
    30ac:	000d8593          	mv	a1,s11
    30b0:	07c10613          	addi	a2,sp,124
    30b4:	00070513          	mv	a0,a4
    30b8:	02612023          	sw	t1,32(sp)
    30bc:	01c12c23          	sw	t3,24(sp)
    30c0:	710060ef          	jal	ra,97d0 <frexp>
    30c4:	0001d717          	auipc	a4,0x1d
    30c8:	f5470713          	addi	a4,a4,-172 # 20018 <__DTOR_END__+0x8>
    30cc:	00072603          	lw	a2,0(a4)
    30d0:	00472683          	lw	a3,4(a4)
    30d4:	6c10b0ef          	jal	ra,ef94 <__muldf3>
    30d8:	00000613          	li	a2,0
    30dc:	00000693          	li	a3,0
    30e0:	00050c93          	mv	s9,a0
    30e4:	00058d93          	mv	s11,a1
    30e8:	41d0b0ef          	jal	ra,ed04 <__eqdf2>
    30ec:	01812e03          	lw	t3,24(sp)
    30f0:	02012303          	lw	t1,32(sp)
    30f4:	00051e63          	bnez	a0,3110 <_vfprintf_r+0x2160>
    30f8:	00100713          	li	a4,1
    30fc:	06e12e23          	sw	a4,124(sp)
    3100:	06100713          	li	a4,97
    3104:	0001d817          	auipc	a6,0x1d
    3108:	01080813          	addi	a6,a6,16 # 20114 <environ+0x88>
    310c:	00ee0663          	beq	t3,a4,3118 <_vfprintf_r+0x2168>
    3110:	0001d817          	auipc	a6,0x1d
    3114:	01880813          	addi	a6,a6,24 # 20128 <environ+0x9c>
    3118:	0001d717          	auipc	a4,0x1d
    311c:	f0870713          	addi	a4,a4,-248 # 20020 <__DTOR_END__+0x10>
    3120:	00472783          	lw	a5,4(a4)
    3124:	00072703          	lw	a4,0(a4)
    3128:	05212c23          	sw	s2,88(sp)
    312c:	00f12e23          	sw	a5,28(sp)
    3130:	000c8793          	mv	a5,s9
    3134:	000b8913          	mv	s2,s7
    3138:	00098c93          	mv	s9,s3
    313c:	000d8a13          	mv	s4,s11
    3140:	00e12c23          	sw	a4,24(sp)
    3144:	000b8d93          	mv	s11,s7
    3148:	fff30c13          	addi	s8,t1,-1
    314c:	00040b93          	mv	s7,s0
    3150:	02912023          	sw	s1,32(sp)
    3154:	03c12423          	sw	t3,40(sp)
    3158:	04612e23          	sw	t1,92(sp)
    315c:	00080413          	mv	s0,a6
    3160:	00078993          	mv	s3,a5
    3164:	01c0006f          	j	3180 <_vfprintf_r+0x21d0>
    3168:	00000693          	li	a3,0
    316c:	00000613          	li	a2,0
    3170:	3950b0ef          	jal	ra,ed04 <__eqdf2>
    3174:	fffc0693          	addi	a3,s8,-1
    3178:	020508e3          	beqz	a0,39a8 <_vfprintf_r+0x29f8>
    317c:	00068c13          	mv	s8,a3
    3180:	01812603          	lw	a2,24(sp)
    3184:	01c12683          	lw	a3,28(sp)
    3188:	00098513          	mv	a0,s3
    318c:	000a0593          	mv	a1,s4
    3190:	6050b0ef          	jal	ra,ef94 <__muldf3>
    3194:	00058493          	mv	s1,a1
    3198:	00050993          	mv	s3,a0
    319c:	6850c0ef          	jal	ra,10020 <__fixdfsi>
    31a0:	00050a93          	mv	s5,a0
    31a4:	7010c0ef          	jal	ra,100a4 <__floatsidf>
    31a8:	00058693          	mv	a3,a1
    31ac:	00050613          	mv	a2,a0
    31b0:	00048593          	mv	a1,s1
    31b4:	00098513          	mv	a0,s3
    31b8:	5000c0ef          	jal	ra,f6b8 <__subdf3>
    31bc:	01540733          	add	a4,s0,s5
    31c0:	00074683          	lbu	a3,0(a4)
    31c4:	fff00793          	li	a5,-1
    31c8:	00090493          	mv	s1,s2
    31cc:	00d90023          	sb	a3,0(s2)
    31d0:	00050993          	mv	s3,a0
    31d4:	00190913          	addi	s2,s2,1
    31d8:	00058a13          	mv	s4,a1
    31dc:	f8fc16e3          	bne	s8,a5,3168 <_vfprintf_r+0x21b8>
    31e0:	00912c23          	sw	s1,24(sp)
    31e4:	00090a13          	mv	s4,s2
    31e8:	02812e03          	lw	t3,40(sp)
    31ec:	05c12303          	lw	t1,92(sp)
    31f0:	02012483          	lw	s1,32(sp)
    31f4:	05812903          	lw	s2,88(sp)
    31f8:	00040813          	mv	a6,s0
    31fc:	000c8993          	mv	s3,s9
    3200:	000b8413          	mv	s0,s7
    3204:	00050c93          	mv	s9,a0
    3208:	000d8b93          	mv	s7,s11
    320c:	fff00c13          	li	s8,-1
    3210:	00058d93          	mv	s11,a1
    3214:	0001d697          	auipc	a3,0x1d
    3218:	e1468693          	addi	a3,a3,-492 # 20028 <__DTOR_END__+0x18>
    321c:	0006a703          	lw	a4,0(a3)
    3220:	0046a783          	lw	a5,4(a3)
    3224:	000c8513          	mv	a0,s9
    3228:	000d8593          	mv	a1,s11
    322c:	00070613          	mv	a2,a4
    3230:	00078693          	mv	a3,a5
    3234:	05012c23          	sw	a6,88(sp)
    3238:	02612423          	sw	t1,40(sp)
    323c:	03c12023          	sw	t3,32(sp)
    3240:	3510b0ef          	jal	ra,ed90 <__gedf2>
    3244:	02012e03          	lw	t3,32(sp)
    3248:	02812303          	lw	t1,40(sp)
    324c:	05812803          	lw	a6,88(sp)
    3250:	64a04e63          	bgtz	a0,38ac <_vfprintf_r+0x28fc>
    3254:	0001d797          	auipc	a5,0x1d
    3258:	dd478793          	addi	a5,a5,-556 # 20028 <__DTOR_END__+0x18>
    325c:	0007a703          	lw	a4,0(a5)
    3260:	0047a783          	lw	a5,4(a5)
    3264:	000c8513          	mv	a0,s9
    3268:	000d8593          	mv	a1,s11
    326c:	00070613          	mv	a2,a4
    3270:	00078693          	mv	a3,a5
    3274:	2910b0ef          	jal	ra,ed04 <__eqdf2>
    3278:	02012e03          	lw	t3,32(sp)
    327c:	02812303          	lw	t1,40(sp)
    3280:	05812803          	lw	a6,88(sp)
    3284:	00051663          	bnez	a0,3290 <_vfprintf_r+0x22e0>
    3288:	001afa93          	andi	s5,s5,1
    328c:	620a9063          	bnez	s5,38ac <_vfprintf_r+0x28fc>
    3290:	001c0a93          	addi	s5,s8,1
    3294:	015a0ab3          	add	s5,s4,s5
    3298:	03000693          	li	a3,48
    329c:	640c4c63          	bltz	s8,38f4 <_vfprintf_r+0x2944>
    32a0:	001a0a13          	addi	s4,s4,1
    32a4:	feda0fa3          	sb	a3,-1(s4)
    32a8:	ff4a9ce3          	bne	s5,s4,32a0 <_vfprintf_r+0x22f0>
    32ac:	417a87b3          	sub	a5,s5,s7
    32b0:	02f12023          	sw	a5,32(sp)
    32b4:	fdfe7a13          	andi	s4,t3,-33
    32b8:	ff0ff06f          	j	2aa8 <_vfprintf_r+0x1af8>
    32bc:	00130c93          	addi	s9,t1,1
    32c0:	00200693          	li	a3,2
    32c4:	f1cff06f          	j	29e0 <_vfprintf_r+0x1a30>
    32c8:	00030c93          	mv	s9,t1
    32cc:	00300693          	li	a3,3
    32d0:	f10ff06f          	j	29e0 <_vfprintf_r+0x1a30>
    32d4:	02d00713          	li	a4,45
    32d8:	06e10ba3          	sb	a4,119(sp)
    32dc:	02d00613          	li	a2,45
    32e0:	00000313          	li	t1,0
    32e4:	001c0c13          	addi	s8,s8,1
    32e8:	efdfd06f          	j	11e4 <_vfprintf_r+0x234>
    32ec:	09810713          	addi	a4,sp,152
    32f0:	00000693          	li	a3,0
    32f4:	08410613          	addi	a2,sp,132
    32f8:	00000593          	li	a1,0
    32fc:	00098513          	mv	a0,s3
    3300:	00612a23          	sw	t1,20(sp)
    3304:	01c12823          	sw	t3,16(sp)
    3308:	4d1000ef          	jal	ra,3fd8 <_wcsrtombs_r>
    330c:	01412303          	lw	t1,20(sp)
    3310:	01012e03          	lw	t3,16(sp)
    3314:	00050c93          	mv	s9,a0
    3318:	64650663          	beq	a0,t1,3964 <_vfprintf_r+0x29b4>
    331c:	09712223          	sw	s7,132(sp)
    3320:	889ff06f          	j	2ba8 <_vfprintf_r+0x1bf8>
    3324:	02d00793          	li	a5,45
    3328:	06f10ba3          	sb	a5,119(sp)
    332c:	02d00613          	li	a2,45
    3330:	a78fe06f          	j	15a8 <_vfprintf_r+0x5f8>
    3334:	02012703          	lw	a4,32(sp)
    3338:	50e64063          	blt	a2,a4,3838 <_vfprintf_r+0x2888>
    333c:	02412783          	lw	a5,36(sp)
    3340:	00060c93          	mv	s9,a2
    3344:	0017f713          	andi	a4,a5,1
    3348:	00070663          	beqz	a4,3354 <_vfprintf_r+0x23a4>
    334c:	03412783          	lw	a5,52(sp)
    3350:	00f60cb3          	add	s9,a2,a5
    3354:	02412783          	lw	a5,36(sp)
    3358:	4007f713          	andi	a4,a5,1024
    335c:	00070463          	beqz	a4,3364 <_vfprintf_r+0x23b4>
    3360:	68c04c63          	bgtz	a2,39f8 <_vfprintf_r+0x2a48>
    3364:	fffcc893          	not	a7,s9
    3368:	05012a83          	lw	s5,80(sp)
    336c:	41f8d893          	srai	a7,a7,0x1f
    3370:	011cfc33          	and	s8,s9,a7
    3374:	06700e13          	li	t3,103
    3378:	02012423          	sw	zero,40(sp)
    337c:	02012223          	sw	zero,36(sp)
    3380:	c79ff06f          	j	2ff8 <_vfprintf_r+0x2048>
    3384:	04812783          	lw	a5,72(sp)
    3388:	04c12583          	lw	a1,76(sp)
    338c:	03e12423          	sw	t5,40(sp)
    3390:	40f888b3          	sub	a7,a7,a5
    3394:	00078613          	mv	a2,a5
    3398:	00088513          	mv	a0,a7
    339c:	02612223          	sw	t1,36(sp)
    33a0:	03c12023          	sw	t3,32(sp)
    33a4:	00e12c23          	sw	a4,24(sp)
    33a8:	01112823          	sw	a7,16(sp)
    33ac:	401060ef          	jal	ra,9fac <strncpy>
    33b0:	018bb7b3          	sltu	a5,s7,s8
    33b4:	00500613          	li	a2,5
    33b8:	00fb87b3          	add	a5,s7,a5
    33bc:	02c7f7b3          	remu	a5,a5,a2
    33c0:	01812703          	lw	a4,24(sp)
    33c4:	ccccd637          	lui	a2,0xccccd
    33c8:	ccd60e93          	addi	t4,a2,-819 # cccccccd <_stack+0xccc8cccd>
    33cc:	00174583          	lbu	a1,1(a4)
    33d0:	ccc60513          	addi	a0,a2,-820
    33d4:	01012883          	lw	a7,16(sp)
    33d8:	00b035b3          	snez	a1,a1
    33dc:	00b70733          	add	a4,a4,a1
    33e0:	02012e03          	lw	t3,32(sp)
    33e4:	02412303          	lw	t1,36(sp)
    33e8:	02812f03          	lw	t5,40(sp)
    33ec:	00000613          	li	a2,0
    33f0:	00500813          	li	a6,5
    33f4:	000e8693          	mv	a3,t4
    33f8:	40fc07b3          	sub	a5,s8,a5
    33fc:	00fc35b3          	sltu	a1,s8,a5
    3400:	40bc85b3          	sub	a1,s9,a1
    3404:	02a78533          	mul	a0,a5,a0
    3408:	03d585b3          	mul	a1,a1,t4
    340c:	03d7bfb3          	mulhu	t6,a5,t4
    3410:	00a585b3          	add	a1,a1,a0
    3414:	03d78533          	mul	a0,a5,t4
    3418:	01f585b3          	add	a1,a1,t6
    341c:	01f59793          	slli	a5,a1,0x1f
    3420:	0015d593          	srli	a1,a1,0x1
    3424:	00155513          	srli	a0,a0,0x1
    3428:	00a7e7b3          	or	a5,a5,a0
    342c:	bdcff06f          	j	2808 <_vfprintf_r+0x1858>
    3430:	00040793          	mv	a5,s0
    3434:	02412403          	lw	s0,36(sp)
    3438:	04912823          	sw	s1,80(sp)
    343c:	05512a23          	sw	s5,84(sp)
    3440:	05212c23          	sw	s2,88(sp)
    3444:	05812e23          	sw	s8,92(sp)
    3448:	000b8a93          	mv	s5,s7
    344c:	000a0613          	mv	a2,s4
    3450:	04c12903          	lw	s2,76(sp)
    3454:	04812b83          	lw	s7,72(sp)
    3458:	02812c03          	lw	s8,40(sp)
    345c:	00812d83          	lw	s11,8(sp)
    3460:	04012a03          	lw	s4,64(sp)
    3464:	00700e13          	li	t3,7
    3468:	01000693          	li	a3,16
    346c:	0001df17          	auipc	t5,0x1d
    3470:	ee0f0f13          	addi	t5,t5,-288 # 2034c <zeroes.0>
    3474:	00030493          	mv	s1,t1
    3478:	08040463          	beqz	s0,3500 <_vfprintf_r+0x2550>
    347c:	160c0c63          	beqz	s8,35f4 <_vfprintf_r+0x2644>
    3480:	fffc0c13          	addi	s8,s8,-1
    3484:	0a412703          	lw	a4,164(sp)
    3488:	01760633          	add	a2,a2,s7
    348c:	0127a023          	sw	s2,0(a5)
    3490:	00170713          	addi	a4,a4,1
    3494:	0177a223          	sw	s7,4(a5)
    3498:	0ac12423          	sw	a2,168(sp)
    349c:	0ae12223          	sw	a4,164(sp)
    34a0:	00878793          	addi	a5,a5,8
    34a4:	14ee4e63          	blt	t3,a4,3600 <_vfprintf_r+0x2650>
    34a8:	000a4703          	lbu	a4,0(s4)
    34ac:	41548cb3          	sub	s9,s1,s5
    34b0:	01975463          	bge	a4,s9,34b8 <_vfprintf_r+0x2508>
    34b4:	00070c93          	mv	s9,a4
    34b8:	03905663          	blez	s9,34e4 <_vfprintf_r+0x2534>
    34bc:	0a412703          	lw	a4,164(sp)
    34c0:	01960633          	add	a2,a2,s9
    34c4:	0157a023          	sw	s5,0(a5)
    34c8:	00170713          	addi	a4,a4,1
    34cc:	0197a223          	sw	s9,4(a5)
    34d0:	0ac12423          	sw	a2,168(sp)
    34d4:	0ae12223          	sw	a4,164(sp)
    34d8:	14ee4e63          	blt	t3,a4,3634 <_vfprintf_r+0x2684>
    34dc:	000a4703          	lbu	a4,0(s4)
    34e0:	00878793          	addi	a5,a5,8
    34e4:	fffcc593          	not	a1,s9
    34e8:	41f5d593          	srai	a1,a1,0x1f
    34ec:	00bcfcb3          	and	s9,s9,a1
    34f0:	41970cb3          	sub	s9,a4,s9
    34f4:	05904263          	bgtz	s9,3538 <_vfprintf_r+0x2588>
    34f8:	00ea8ab3          	add	s5,s5,a4
    34fc:	f80410e3          	bnez	s0,347c <_vfprintf_r+0x24cc>
    3500:	f80c10e3          	bnez	s8,3480 <_vfprintf_r+0x24d0>
    3504:	00048313          	mv	t1,s1
    3508:	05412023          	sw	s4,64(sp)
    350c:	000a8b93          	mv	s7,s5
    3510:	05012483          	lw	s1,80(sp)
    3514:	05412a83          	lw	s5,84(sp)
    3518:	05812903          	lw	s2,88(sp)
    351c:	05c12c03          	lw	s8,92(sp)
    3520:	00078413          	mv	s0,a5
    3524:	00060a13          	mv	s4,a2
    3528:	01736463          	bltu	t1,s7,3530 <_vfprintf_r+0x2580>
    352c:	bcdfe06f          	j	20f8 <_vfprintf_r+0x1148>
    3530:	00030b93          	mv	s7,t1
    3534:	bc5fe06f          	j	20f8 <_vfprintf_r+0x1148>
    3538:	0a412703          	lw	a4,164(sp)
    353c:	0001d597          	auipc	a1,0x1d
    3540:	e1058593          	addi	a1,a1,-496 # 2034c <zeroes.0>
    3544:	0996d263          	bge	a3,s9,35c8 <_vfprintf_r+0x2618>
    3548:	00812c23          	sw	s0,24(sp)
    354c:	000c8413          	mv	s0,s9
    3550:	000f0c93          	mv	s9,t5
    3554:	00c0006f          	j	3560 <_vfprintf_r+0x25b0>
    3558:	ff040413          	addi	s0,s0,-16
    355c:	0686d063          	bge	a3,s0,35bc <_vfprintf_r+0x260c>
    3560:	01060613          	addi	a2,a2,16
    3564:	00170713          	addi	a4,a4,1
    3568:	01e7a023          	sw	t5,0(a5)
    356c:	00d7a223          	sw	a3,4(a5)
    3570:	0ac12423          	sw	a2,168(sp)
    3574:	0ae12223          	sw	a4,164(sp)
    3578:	00878793          	addi	a5,a5,8
    357c:	fcee5ee3          	bge	t3,a4,3558 <_vfprintf_r+0x25a8>
    3580:	0a010613          	addi	a2,sp,160
    3584:	000d8593          	mv	a1,s11
    3588:	00098513          	mv	a0,s3
    358c:	5e5060ef          	jal	ra,a370 <__sprint_r>
    3590:	00050463          	beqz	a0,3598 <_vfprintf_r+0x25e8>
    3594:	ecdfd06f          	j	1460 <_vfprintf_r+0x4b0>
    3598:	01000693          	li	a3,16
    359c:	ff040413          	addi	s0,s0,-16
    35a0:	0a812603          	lw	a2,168(sp)
    35a4:	0a412703          	lw	a4,164(sp)
    35a8:	0ac10793          	addi	a5,sp,172
    35ac:	0001df17          	auipc	t5,0x1d
    35b0:	da0f0f13          	addi	t5,t5,-608 # 2034c <zeroes.0>
    35b4:	00700e13          	li	t3,7
    35b8:	fa86c4e3          	blt	a3,s0,3560 <_vfprintf_r+0x25b0>
    35bc:	000c8593          	mv	a1,s9
    35c0:	00040c93          	mv	s9,s0
    35c4:	01812403          	lw	s0,24(sp)
    35c8:	00cc8633          	add	a2,s9,a2
    35cc:	00170713          	addi	a4,a4,1
    35d0:	00b7a023          	sw	a1,0(a5)
    35d4:	0197a223          	sw	s9,4(a5)
    35d8:	0ac12423          	sw	a2,168(sp)
    35dc:	0ae12223          	sw	a4,164(sp)
    35e0:	0aee4c63          	blt	t3,a4,3698 <_vfprintf_r+0x26e8>
    35e4:	000a4703          	lbu	a4,0(s4)
    35e8:	00878793          	addi	a5,a5,8
    35ec:	00ea8ab3          	add	s5,s5,a4
    35f0:	f0dff06f          	j	34fc <_vfprintf_r+0x254c>
    35f4:	fffa0a13          	addi	s4,s4,-1
    35f8:	fff40413          	addi	s0,s0,-1
    35fc:	e89ff06f          	j	3484 <_vfprintf_r+0x24d4>
    3600:	0a010613          	addi	a2,sp,160
    3604:	000d8593          	mv	a1,s11
    3608:	00098513          	mv	a0,s3
    360c:	565060ef          	jal	ra,a370 <__sprint_r>
    3610:	00050463          	beqz	a0,3618 <_vfprintf_r+0x2668>
    3614:	e4dfd06f          	j	1460 <_vfprintf_r+0x4b0>
    3618:	0a812603          	lw	a2,168(sp)
    361c:	0ac10793          	addi	a5,sp,172
    3620:	0001df17          	auipc	t5,0x1d
    3624:	d2cf0f13          	addi	t5,t5,-724 # 2034c <zeroes.0>
    3628:	01000693          	li	a3,16
    362c:	00700e13          	li	t3,7
    3630:	e79ff06f          	j	34a8 <_vfprintf_r+0x24f8>
    3634:	0a010613          	addi	a2,sp,160
    3638:	000d8593          	mv	a1,s11
    363c:	00098513          	mv	a0,s3
    3640:	531060ef          	jal	ra,a370 <__sprint_r>
    3644:	00050463          	beqz	a0,364c <_vfprintf_r+0x269c>
    3648:	e19fd06f          	j	1460 <_vfprintf_r+0x4b0>
    364c:	000a4703          	lbu	a4,0(s4)
    3650:	0a812603          	lw	a2,168(sp)
    3654:	0ac10793          	addi	a5,sp,172
    3658:	0001df17          	auipc	t5,0x1d
    365c:	cf4f0f13          	addi	t5,t5,-780 # 2034c <zeroes.0>
    3660:	01000693          	li	a3,16
    3664:	00700e13          	li	t3,7
    3668:	e7dff06f          	j	34e4 <_vfprintf_r+0x2534>
    366c:	07714603          	lbu	a2,119(sp)
    3670:	01b12a23          	sw	s11,20(sp)
    3674:	02012423          	sw	zero,40(sp)
    3678:	02012223          	sw	zero,36(sp)
    367c:	00012c23          	sw	zero,24(sp)
    3680:	00012823          	sw	zero,16(sp)
    3684:	00000c13          	li	s8,0
    3688:	00000313          	li	t1,0
    368c:	00061463          	bnez	a2,3694 <_vfprintf_r+0x26e4>
    3690:	b55fd06f          	j	11e4 <_vfprintf_r+0x234>
    3694:	f51fd06f          	j	15e4 <_vfprintf_r+0x634>
    3698:	0a010613          	addi	a2,sp,160
    369c:	000d8593          	mv	a1,s11
    36a0:	00098513          	mv	a0,s3
    36a4:	4cd060ef          	jal	ra,a370 <__sprint_r>
    36a8:	00050463          	beqz	a0,36b0 <_vfprintf_r+0x2700>
    36ac:	db5fd06f          	j	1460 <_vfprintf_r+0x4b0>
    36b0:	000a4703          	lbu	a4,0(s4)
    36b4:	0a812603          	lw	a2,168(sp)
    36b8:	0ac10793          	addi	a5,sp,172
    36bc:	0001df17          	auipc	t5,0x1d
    36c0:	c90f0f13          	addi	t5,t5,-880 # 2034c <zeroes.0>
    36c4:	01000693          	li	a3,16
    36c8:	00700e13          	li	t3,7
    36cc:	00ea8ab3          	add	s5,s5,a4
    36d0:	e2dff06f          	j	34fc <_vfprintf_r+0x254c>
    36d4:	00812583          	lw	a1,8(sp)
    36d8:	0a010613          	addi	a2,sp,160
    36dc:	00098513          	mv	a0,s3
    36e0:	04612823          	sw	t1,80(sp)
    36e4:	48d060ef          	jal	ra,a370 <__sprint_r>
    36e8:	00050463          	beqz	a0,36f0 <_vfprintf_r+0x2740>
    36ec:	d75fd06f          	j	1460 <_vfprintf_r+0x4b0>
    36f0:	0a812a03          	lw	s4,168(sp)
    36f4:	05012303          	lw	t1,80(sp)
    36f8:	0ac10413          	addi	s0,sp,172
    36fc:	9d1fe06f          	j	20cc <_vfprintf_r+0x111c>
    3700:	00900513          	li	a0,9
    3704:	91856263          	bltu	a0,s8,2808 <_vfprintf_r+0x1858>
    3708:	980ff06f          	j	2888 <_vfprintf_r+0x18d8>
    370c:	00812583          	lw	a1,8(sp)
    3710:	0a010613          	addi	a2,sp,160
    3714:	00098513          	mv	a0,s3
    3718:	00612c23          	sw	t1,24(sp)
    371c:	455060ef          	jal	ra,a370 <__sprint_r>
    3720:	00050463          	beqz	a0,3728 <_vfprintf_r+0x2778>
    3724:	d3dfd06f          	j	1460 <_vfprintf_r+0x4b0>
    3728:	07c12683          	lw	a3,124(sp)
    372c:	0a812703          	lw	a4,168(sp)
    3730:	01812303          	lw	t1,24(sp)
    3734:	0ac10413          	addi	s0,sp,172
    3738:	a09fe06f          	j	2140 <_vfprintf_r+0x1190>
    373c:	02412783          	lw	a5,36(sp)
    3740:	0017f713          	andi	a4,a5,1
    3744:	01812783          	lw	a5,24(sp)
    3748:	00676733          	or	a4,a4,t1
    374c:	44f05463          	blez	a5,3b94 <_vfprintf_r+0x2be4>
    3750:	3e071e63          	bnez	a4,3b4c <_vfprintf_r+0x2b9c>
    3754:	01812c83          	lw	s9,24(sp)
    3758:	06600e13          	li	t3,102
    375c:	02412783          	lw	a5,36(sp)
    3760:	4007f713          	andi	a4,a5,1024
    3764:	28071c63          	bnez	a4,39fc <_vfprintf_r+0x2a4c>
    3768:	fffcc893          	not	a7,s9
    376c:	41f8d893          	srai	a7,a7,0x1f
    3770:	05012a83          	lw	s5,80(sp)
    3774:	011cfc33          	and	s8,s9,a7
    3778:	c01ff06f          	j	3378 <_vfprintf_r+0x23c8>
    377c:	00812583          	lw	a1,8(sp)
    3780:	0a010613          	addi	a2,sp,160
    3784:	00098513          	mv	a0,s3
    3788:	3e9060ef          	jal	ra,a370 <__sprint_r>
    378c:	00050463          	beqz	a0,3794 <_vfprintf_r+0x27e4>
    3790:	cd1fd06f          	j	1460 <_vfprintf_r+0x4b0>
    3794:	07c12683          	lw	a3,124(sp)
    3798:	02012783          	lw	a5,32(sp)
    379c:	0a812703          	lw	a4,168(sp)
    37a0:	0ac10413          	addi	s0,sp,172
    37a4:	40d786b3          	sub	a3,a5,a3
    37a8:	9d9fe06f          	j	2180 <_vfprintf_r+0x11d0>
    37ac:	00012823          	sw	zero,16(sp)
    37b0:	0ec10b93          	addi	s7,sp,236
    37b4:	c20ff06f          	j	2bd4 <_vfprintf_r+0x1c24>
    37b8:	ff000613          	li	a2,-16
    37bc:	40b00cb3          	neg	s9,a1
    37c0:	0001da17          	auipc	s4,0x1d
    37c4:	b8ca0a13          	addi	s4,s4,-1140 # 2034c <zeroes.0>
    37c8:	01000d93          	li	s11,16
    37cc:	00700313          	li	t1,7
    37d0:	00c5c863          	blt	a1,a2,37e0 <_vfprintf_r+0x2830>
    37d4:	1440006f          	j	3918 <_vfprintf_r+0x2968>
    37d8:	ff0c8c93          	addi	s9,s9,-16
    37dc:	139dde63          	bge	s11,s9,3918 <_vfprintf_r+0x2968>
    37e0:	01070713          	addi	a4,a4,16
    37e4:	00168693          	addi	a3,a3,1
    37e8:	01442023          	sw	s4,0(s0)
    37ec:	01b42223          	sw	s11,4(s0)
    37f0:	0ae12423          	sw	a4,168(sp)
    37f4:	0ad12223          	sw	a3,164(sp)
    37f8:	00840413          	addi	s0,s0,8
    37fc:	fcd35ee3          	bge	t1,a3,37d8 <_vfprintf_r+0x2828>
    3800:	00812583          	lw	a1,8(sp)
    3804:	0a010613          	addi	a2,sp,160
    3808:	00098513          	mv	a0,s3
    380c:	365060ef          	jal	ra,a370 <__sprint_r>
    3810:	00050463          	beqz	a0,3818 <_vfprintf_r+0x2868>
    3814:	c4dfd06f          	j	1460 <_vfprintf_r+0x4b0>
    3818:	0a812703          	lw	a4,168(sp)
    381c:	0a412683          	lw	a3,164(sp)
    3820:	0ac10413          	addi	s0,sp,172
    3824:	00700313          	li	t1,7
    3828:	fb1ff06f          	j	37d8 <_vfprintf_r+0x2828>
    382c:	019b8c33          	add	s8,s7,s9
    3830:	04700a13          	li	s4,71
    3834:	a1cff06f          	j	2a50 <_vfprintf_r+0x1aa0>
    3838:	02012783          	lw	a5,32(sp)
    383c:	03412703          	lw	a4,52(sp)
    3840:	06700e13          	li	t3,103
    3844:	00e78cb3          	add	s9,a5,a4
    3848:	01812783          	lw	a5,24(sp)
    384c:	f0f048e3          	bgtz	a5,375c <_vfprintf_r+0x27ac>
    3850:	40fc86b3          	sub	a3,s9,a5
    3854:	00168c93          	addi	s9,a3,1
    3858:	fffcc893          	not	a7,s9
    385c:	41f8d893          	srai	a7,a7,0x1f
    3860:	05012a83          	lw	s5,80(sp)
    3864:	011cfc33          	and	s8,s9,a7
    3868:	b11ff06f          	j	3378 <_vfprintf_r+0x23c8>
    386c:	00812783          	lw	a5,8(sp)
    3870:	0647a783          	lw	a5,100(a5)
    3874:	0017f793          	andi	a5,a5,1
    3878:	02079063          	bnez	a5,3898 <_vfprintf_r+0x28e8>
    387c:	00812783          	lw	a5,8(sp)
    3880:	00c7d783          	lhu	a5,12(a5)
    3884:	2007f793          	andi	a5,a5,512
    3888:	00079863          	bnez	a5,3898 <_vfprintf_r+0x28e8>
    388c:	00812783          	lw	a5,8(sp)
    3890:	0587a503          	lw	a0,88(a5)
    3894:	4e5030ef          	jal	ra,7578 <__retarget_lock_release_recursive>
    3898:	fff00793          	li	a5,-1
    389c:	00f12623          	sw	a5,12(sp)
    38a0:	bf9fd06f          	j	1498 <_vfprintf_r+0x4e8>
    38a4:	000a8d93          	mv	s11,s5
    38a8:	9c8fe06f          	j	1a70 <_vfprintf_r+0xac0>
    38ac:	01812783          	lw	a5,24(sp)
    38b0:	00f84583          	lbu	a1,15(a6)
    38b4:	000a0693          	mv	a3,s4
    38b8:	08f12c23          	sw	a5,152(sp)
    38bc:	fffa4603          	lbu	a2,-1(s4)
    38c0:	02b61063          	bne	a2,a1,38e0 <_vfprintf_r+0x2930>
    38c4:	03000513          	li	a0,48
    38c8:	fea68fa3          	sb	a0,-1(a3)
    38cc:	09812683          	lw	a3,152(sp)
    38d0:	fff68793          	addi	a5,a3,-1
    38d4:	08f12c23          	sw	a5,152(sp)
    38d8:	fff6c603          	lbu	a2,-1(a3)
    38dc:	fec586e3          	beq	a1,a2,38c8 <_vfprintf_r+0x2918>
    38e0:	00160593          	addi	a1,a2,1
    38e4:	03900513          	li	a0,57
    38e8:	0ff5f593          	zext.b	a1,a1
    38ec:	02a60063          	beq	a2,a0,390c <_vfprintf_r+0x295c>
    38f0:	feb68fa3          	sb	a1,-1(a3)
    38f4:	000a0a93          	mv	s5,s4
    38f8:	9b5ff06f          	j	32ac <_vfprintf_r+0x22fc>
    38fc:	00030463          	beqz	t1,3904 <_vfprintf_r+0x2954>
    3900:	844ff06f          	j	2944 <_vfprintf_r+0x1994>
    3904:	00100313          	li	t1,1
    3908:	83cff06f          	j	2944 <_vfprintf_r+0x1994>
    390c:	00a84583          	lbu	a1,10(a6)
    3910:	feb68fa3          	sb	a1,-1(a3)
    3914:	fe1ff06f          	j	38f4 <_vfprintf_r+0x2944>
    3918:	01970733          	add	a4,a4,s9
    391c:	00168693          	addi	a3,a3,1
    3920:	01442023          	sw	s4,0(s0)
    3924:	01942223          	sw	s9,4(s0)
    3928:	0ae12423          	sw	a4,168(sp)
    392c:	0ad12223          	sw	a3,164(sp)
    3930:	00700613          	li	a2,7
    3934:	00d64463          	blt	a2,a3,393c <_vfprintf_r+0x298c>
    3938:	b45fe06f          	j	247c <_vfprintf_r+0x14cc>
    393c:	00812583          	lw	a1,8(sp)
    3940:	0a010613          	addi	a2,sp,160
    3944:	00098513          	mv	a0,s3
    3948:	229060ef          	jal	ra,a370 <__sprint_r>
    394c:	00050463          	beqz	a0,3954 <_vfprintf_r+0x29a4>
    3950:	b11fd06f          	j	1460 <_vfprintf_r+0x4b0>
    3954:	0a812703          	lw	a4,168(sp)
    3958:	0a412683          	lw	a3,164(sp)
    395c:	0ac10413          	addi	s0,sp,172
    3960:	bfcff06f          	j	2d5c <_vfprintf_r+0x1dac>
    3964:	00812703          	lw	a4,8(sp)
    3968:	00c71783          	lh	a5,12(a4)
    396c:	0407e793          	ori	a5,a5,64
    3970:	00f71623          	sh	a5,12(a4)
    3974:	b09fd06f          	j	147c <_vfprintf_r+0x4cc>
    3978:	08a10713          	addi	a4,sp,138
    397c:	00069863          	bnez	a3,398c <_vfprintf_r+0x29dc>
    3980:	03000713          	li	a4,48
    3984:	08e10523          	sb	a4,138(sp)
    3988:	08b10713          	addi	a4,sp,139
    398c:	15010793          	addi	a5,sp,336
    3990:	40f706b3          	sub	a3,a4,a5
    3994:	03030313          	addi	t1,t1,48
    3998:	0c968793          	addi	a5,a3,201
    399c:	00670023          	sb	t1,0(a4)
    39a0:	04f12223          	sw	a5,68(sp)
    39a4:	e14ff06f          	j	2fb8 <_vfprintf_r+0x2008>
    39a8:	00098793          	mv	a5,s3
    39ac:	00912c23          	sw	s1,24(sp)
    39b0:	00040813          	mv	a6,s0
    39b4:	000c8993          	mv	s3,s9
    39b8:	000b8413          	mv	s0,s7
    39bc:	02812e03          	lw	t3,40(sp)
    39c0:	000d8b93          	mv	s7,s11
    39c4:	05c12303          	lw	t1,92(sp)
    39c8:	000a0d93          	mv	s11,s4
    39cc:	02012483          	lw	s1,32(sp)
    39d0:	00090a13          	mv	s4,s2
    39d4:	00078c93          	mv	s9,a5
    39d8:	05812903          	lw	s2,88(sp)
    39dc:	839ff06f          	j	3214 <_vfprintf_r+0x2264>
    39e0:	02412783          	lw	a5,36(sp)
    39e4:	0017f713          	andi	a4,a5,1
    39e8:	de070663          	beqz	a4,2fd4 <_vfprintf_r+0x2024>
    39ec:	de0ff06f          	j	2fcc <_vfprintf_r+0x201c>
    39f0:	00600313          	li	t1,6
    39f4:	f51fe06f          	j	2944 <_vfprintf_r+0x1994>
    39f8:	06700e13          	li	t3,103
    39fc:	04012683          	lw	a3,64(sp)
    3a00:	0ff00613          	li	a2,255
    3a04:	0006c703          	lbu	a4,0(a3)
    3a08:	1ec70063          	beq	a4,a2,3be8 <_vfprintf_r+0x2c38>
    3a0c:	01812783          	lw	a5,24(sp)
    3a10:	00000513          	li	a0,0
    3a14:	00000593          	li	a1,0
    3a18:	00f75e63          	bge	a4,a5,3a34 <_vfprintf_r+0x2a84>
    3a1c:	40e787b3          	sub	a5,a5,a4
    3a20:	0016c703          	lbu	a4,1(a3)
    3a24:	04070663          	beqz	a4,3a70 <_vfprintf_r+0x2ac0>
    3a28:	00158593          	addi	a1,a1,1
    3a2c:	00168693          	addi	a3,a3,1
    3a30:	fec714e3          	bne	a4,a2,3a18 <_vfprintf_r+0x2a68>
    3a34:	04d12023          	sw	a3,64(sp)
    3a38:	00f12c23          	sw	a5,24(sp)
    3a3c:	02b12223          	sw	a1,36(sp)
    3a40:	02a12423          	sw	a0,40(sp)
    3a44:	02812783          	lw	a5,40(sp)
    3a48:	02412703          	lw	a4,36(sp)
    3a4c:	05012a83          	lw	s5,80(sp)
    3a50:	00e78733          	add	a4,a5,a4
    3a54:	04812783          	lw	a5,72(sp)
    3a58:	02f70733          	mul	a4,a4,a5
    3a5c:	01970cb3          	add	s9,a4,s9
    3a60:	fffcc893          	not	a7,s9
    3a64:	41f8d893          	srai	a7,a7,0x1f
    3a68:	011cfc33          	and	s8,s9,a7
    3a6c:	d8cff06f          	j	2ff8 <_vfprintf_r+0x2048>
    3a70:	0006c703          	lbu	a4,0(a3)
    3a74:	00150513          	addi	a0,a0,1
    3a78:	fb9ff06f          	j	3a30 <_vfprintf_r+0x2a80>
    3a7c:	02c12703          	lw	a4,44(sp)
    3a80:	000d8593          	mv	a1,s11
    3a84:	07c10613          	addi	a2,sp,124
    3a88:	00070513          	mv	a0,a4
    3a8c:	02612023          	sw	t1,32(sp)
    3a90:	01c12c23          	sw	t3,24(sp)
    3a94:	53d050ef          	jal	ra,97d0 <frexp>
    3a98:	0001c717          	auipc	a4,0x1c
    3a9c:	58070713          	addi	a4,a4,1408 # 20018 <__DTOR_END__+0x8>
    3aa0:	00072603          	lw	a2,0(a4)
    3aa4:	00472683          	lw	a3,4(a4)
    3aa8:	4ec0b0ef          	jal	ra,ef94 <__muldf3>
    3aac:	00000613          	li	a2,0
    3ab0:	00000693          	li	a3,0
    3ab4:	00050c93          	mv	s9,a0
    3ab8:	00058d93          	mv	s11,a1
    3abc:	2480b0ef          	jal	ra,ed04 <__eqdf2>
    3ac0:	01812e03          	lw	t3,24(sp)
    3ac4:	02012303          	lw	t1,32(sp)
    3ac8:	0001c817          	auipc	a6,0x1c
    3acc:	64c80813          	addi	a6,a6,1612 # 20114 <environ+0x88>
    3ad0:	e4051463          	bnez	a0,3118 <_vfprintf_r+0x2168>
    3ad4:	e24ff06f          	j	30f8 <_vfprintf_r+0x2148>
    3ad8:	00040313          	mv	t1,s0
    3adc:	01012483          	lw	s1,16(sp)
    3ae0:	000b8413          	mv	s0,s7
    3ae4:	01412e03          	lw	t3,20(sp)
    3ae8:	000c0b93          	mv	s7,s8
    3aec:	00030c93          	mv	s9,t1
    3af0:	8b8ff06f          	j	2ba8 <_vfprintf_r+0x1bf8>
    3af4:	03012783          	lw	a5,48(sp)
    3af8:	0607c463          	bltz	a5,3b60 <_vfprintf_r+0x2bb0>
    3afc:	07714603          	lbu	a2,119(sp)
    3b00:	04700713          	li	a4,71
    3b04:	0001cb97          	auipc	s7,0x1c
    3b08:	608b8b93          	addi	s7,s7,1544 # 2010c <environ+0x80>
    3b0c:	01c74463          	blt	a4,t3,3b14 <_vfprintf_r+0x2b64>
    3b10:	ab1fd06f          	j	15c0 <_vfprintf_r+0x610>
    3b14:	0001cb97          	auipc	s7,0x1c
    3b18:	5fcb8b93          	addi	s7,s7,1532 # 20110 <environ+0x84>
    3b1c:	aa5fd06f          	j	15c0 <_vfprintf_r+0x610>
    3b20:	07714603          	lbu	a2,119(sp)
    3b24:	01b12a23          	sw	s11,20(sp)
    3b28:	02012423          	sw	zero,40(sp)
    3b2c:	02012223          	sw	zero,36(sp)
    3b30:	00030c13          	mv	s8,t1
    3b34:	00030c93          	mv	s9,t1
    3b38:	07300e13          	li	t3,115
    3b3c:	00000313          	li	t1,0
    3b40:	00061463          	bnez	a2,3b48 <_vfprintf_r+0x2b98>
    3b44:	ea0fd06f          	j	11e4 <_vfprintf_r+0x234>
    3b48:	a9dfd06f          	j	15e4 <_vfprintf_r+0x634>
    3b4c:	03412703          	lw	a4,52(sp)
    3b50:	06600e13          	li	t3,102
    3b54:	00e786b3          	add	a3,a5,a4
    3b58:	00668cb3          	add	s9,a3,t1
    3b5c:	c01ff06f          	j	375c <_vfprintf_r+0x27ac>
    3b60:	02d00793          	li	a5,45
    3b64:	06f10ba3          	sb	a5,119(sp)
    3b68:	02d00613          	li	a2,45
    3b6c:	f95ff06f          	j	3b00 <_vfprintf_r+0x2b50>
    3b70:	01412783          	lw	a5,20(sp)
    3b74:	0007aa03          	lw	s4,0(a5)
    3b78:	00478793          	addi	a5,a5,4
    3b7c:	000a5463          	bgez	s4,3b84 <_vfprintf_r+0x2bd4>
    3b80:	fff00a13          	li	s4,-1
    3b84:	0014ce03          	lbu	t3,1(s1)
    3b88:	00f12a23          	sw	a5,20(sp)
    3b8c:	00070493          	mv	s1,a4
    3b90:	dc8fd06f          	j	1158 <_vfprintf_r+0x1a8>
    3b94:	00071c63          	bnez	a4,3bac <_vfprintf_r+0x2bfc>
    3b98:	05012a83          	lw	s5,80(sp)
    3b9c:	00100c13          	li	s8,1
    3ba0:	06600e13          	li	t3,102
    3ba4:	00100c93          	li	s9,1
    3ba8:	fd0ff06f          	j	3378 <_vfprintf_r+0x23c8>
    3bac:	03412783          	lw	a5,52(sp)
    3bb0:	05012a83          	lw	s5,80(sp)
    3bb4:	06600e13          	li	t3,102
    3bb8:	00178693          	addi	a3,a5,1
    3bbc:	00668cb3          	add	s9,a3,t1
    3bc0:	fffcc893          	not	a7,s9
    3bc4:	41f8d893          	srai	a7,a7,0x1f
    3bc8:	011cfc33          	and	s8,s9,a7
    3bcc:	facff06f          	j	3378 <_vfprintf_r+0x23c8>
    3bd0:	00200793          	li	a5,2
    3bd4:	04f12223          	sw	a5,68(sp)
    3bd8:	be0ff06f          	j	2fb8 <_vfprintf_r+0x2008>
    3bdc:	07000713          	li	a4,112
    3be0:	00100693          	li	a3,1
    3be4:	b3cff06f          	j	2f20 <_vfprintf_r+0x1f70>
    3be8:	02012423          	sw	zero,40(sp)
    3bec:	02012223          	sw	zero,36(sp)
    3bf0:	e55ff06f          	j	3a44 <_vfprintf_r+0x2a94>
    3bf4:	00812703          	lw	a4,8(sp)
    3bf8:	01012f03          	lw	t5,16(sp)
    3bfc:	00c75783          	lhu	a5,12(a4)
    3c00:	0407e793          	ori	a5,a5,64
    3c04:	00f71623          	sh	a5,12(a4)
    3c08:	85dfd06f          	j	1464 <_vfprintf_r+0x4b4>

00003c0c <vfprintf>:
    3c0c:	00060693          	mv	a3,a2
    3c10:	00058613          	mv	a2,a1
    3c14:	00050593          	mv	a1,a0
    3c18:	0001c517          	auipc	a0,0x1c
    3c1c:	47052503          	lw	a0,1136(a0) # 20088 <_impure_ptr>
    3c20:	b90fd06f          	j	fb0 <_vfprintf_r>

00003c24 <__sbprintf>:
    3c24:	00c59783          	lh	a5,12(a1)
    3c28:	00e5d703          	lhu	a4,14(a1)
    3c2c:	b7010113          	addi	sp,sp,-1168
    3c30:	ffd7f793          	andi	a5,a5,-3
    3c34:	01079793          	slli	a5,a5,0x10
    3c38:	0645a883          	lw	a7,100(a1)
    3c3c:	01c5a803          	lw	a6,28(a1)
    3c40:	48812423          	sw	s0,1160(sp)
    3c44:	01071713          	slli	a4,a4,0x10
    3c48:	00058413          	mv	s0,a1
    3c4c:	0107d793          	srli	a5,a5,0x10
    3c50:	0245a583          	lw	a1,36(a1)
    3c54:	00e7e7b3          	or	a5,a5,a4
    3c58:	49212023          	sw	s2,1152(sp)
    3c5c:	40000713          	li	a4,1024
    3c60:	00050913          	mv	s2,a0
    3c64:	00f12a23          	sw	a5,20(sp)
    3c68:	06010513          	addi	a0,sp,96
    3c6c:	07010793          	addi	a5,sp,112
    3c70:	48112623          	sw	ra,1164(sp)
    3c74:	48912223          	sw	s1,1156(sp)
    3c78:	47312e23          	sw	s3,1148(sp)
    3c7c:	00060493          	mv	s1,a2
    3c80:	00068993          	mv	s3,a3
    3c84:	07112623          	sw	a7,108(sp)
    3c88:	03012223          	sw	a6,36(sp)
    3c8c:	02b12623          	sw	a1,44(sp)
    3c90:	00f12423          	sw	a5,8(sp)
    3c94:	00f12c23          	sw	a5,24(sp)
    3c98:	00e12823          	sw	a4,16(sp)
    3c9c:	00e12e23          	sw	a4,28(sp)
    3ca0:	02012023          	sw	zero,32(sp)
    3ca4:	0ad030ef          	jal	ra,7550 <__retarget_lock_init_recursive>
    3ca8:	00048613          	mv	a2,s1
    3cac:	00098693          	mv	a3,s3
    3cb0:	00810593          	addi	a1,sp,8
    3cb4:	00090513          	mv	a0,s2
    3cb8:	af8fd0ef          	jal	ra,fb0 <_vfprintf_r>
    3cbc:	00050493          	mv	s1,a0
    3cc0:	04055263          	bgez	a0,3d04 <__sbprintf+0xe0>
    3cc4:	01415783          	lhu	a5,20(sp)
    3cc8:	0407f793          	andi	a5,a5,64
    3ccc:	00078863          	beqz	a5,3cdc <__sbprintf+0xb8>
    3cd0:	00c45783          	lhu	a5,12(s0)
    3cd4:	0407e793          	ori	a5,a5,64
    3cd8:	00f41623          	sh	a5,12(s0)
    3cdc:	06012503          	lw	a0,96(sp)
    3ce0:	079030ef          	jal	ra,7558 <__retarget_lock_close_recursive>
    3ce4:	48c12083          	lw	ra,1164(sp)
    3ce8:	48812403          	lw	s0,1160(sp)
    3cec:	48012903          	lw	s2,1152(sp)
    3cf0:	47c12983          	lw	s3,1148(sp)
    3cf4:	00048513          	mv	a0,s1
    3cf8:	48412483          	lw	s1,1156(sp)
    3cfc:	49010113          	addi	sp,sp,1168
    3d00:	00008067          	ret
    3d04:	00810593          	addi	a1,sp,8
    3d08:	00090513          	mv	a0,s2
    3d0c:	74d010ef          	jal	ra,5c58 <_fflush_r>
    3d10:	fa050ae3          	beqz	a0,3cc4 <__sbprintf+0xa0>
    3d14:	fff00493          	li	s1,-1
    3d18:	fadff06f          	j	3cc4 <__sbprintf+0xa0>

00003d1c <__swbuf_r>:
    3d1c:	fe010113          	addi	sp,sp,-32
    3d20:	00812c23          	sw	s0,24(sp)
    3d24:	00912a23          	sw	s1,20(sp)
    3d28:	01212823          	sw	s2,16(sp)
    3d2c:	00112e23          	sw	ra,28(sp)
    3d30:	01312623          	sw	s3,12(sp)
    3d34:	00050913          	mv	s2,a0
    3d38:	00058493          	mv	s1,a1
    3d3c:	00060413          	mv	s0,a2
    3d40:	00050663          	beqz	a0,3d4c <__swbuf_r+0x30>
    3d44:	03852783          	lw	a5,56(a0)
    3d48:	14078063          	beqz	a5,3e88 <__swbuf_r+0x16c>
    3d4c:	01842783          	lw	a5,24(s0)
    3d50:	00c41703          	lh	a4,12(s0)
    3d54:	00f42423          	sw	a5,8(s0)
    3d58:	00877793          	andi	a5,a4,8
    3d5c:	08078263          	beqz	a5,3de0 <__swbuf_r+0xc4>
    3d60:	01042783          	lw	a5,16(s0)
    3d64:	06078e63          	beqz	a5,3de0 <__swbuf_r+0xc4>
    3d68:	01271693          	slli	a3,a4,0x12
    3d6c:	0ff4f993          	zext.b	s3,s1
    3d70:	0ff4f493          	zext.b	s1,s1
    3d74:	0806da63          	bgez	a3,3e08 <__swbuf_r+0xec>
    3d78:	00042703          	lw	a4,0(s0)
    3d7c:	01442683          	lw	a3,20(s0)
    3d80:	40f707b3          	sub	a5,a4,a5
    3d84:	0ad7da63          	bge	a5,a3,3e38 <__swbuf_r+0x11c>
    3d88:	00842683          	lw	a3,8(s0)
    3d8c:	00170613          	addi	a2,a4,1
    3d90:	00c42023          	sw	a2,0(s0)
    3d94:	fff68693          	addi	a3,a3,-1
    3d98:	00d42423          	sw	a3,8(s0)
    3d9c:	01370023          	sb	s3,0(a4)
    3da0:	01442703          	lw	a4,20(s0)
    3da4:	00178793          	addi	a5,a5,1
    3da8:	0cf70463          	beq	a4,a5,3e70 <__swbuf_r+0x154>
    3dac:	00c45783          	lhu	a5,12(s0)
    3db0:	0017f793          	andi	a5,a5,1
    3db4:	00078663          	beqz	a5,3dc0 <__swbuf_r+0xa4>
    3db8:	00a00793          	li	a5,10
    3dbc:	0af48a63          	beq	s1,a5,3e70 <__swbuf_r+0x154>
    3dc0:	01c12083          	lw	ra,28(sp)
    3dc4:	01812403          	lw	s0,24(sp)
    3dc8:	01012903          	lw	s2,16(sp)
    3dcc:	00c12983          	lw	s3,12(sp)
    3dd0:	00048513          	mv	a0,s1
    3dd4:	01412483          	lw	s1,20(sp)
    3dd8:	02010113          	addi	sp,sp,32
    3ddc:	00008067          	ret
    3de0:	00040593          	mv	a1,s0
    3de4:	00090513          	mv	a0,s2
    3de8:	220000ef          	jal	ra,4008 <__swsetup_r>
    3dec:	08051a63          	bnez	a0,3e80 <__swbuf_r+0x164>
    3df0:	00c41703          	lh	a4,12(s0)
    3df4:	0ff4f993          	zext.b	s3,s1
    3df8:	01042783          	lw	a5,16(s0)
    3dfc:	01271693          	slli	a3,a4,0x12
    3e00:	0ff4f493          	zext.b	s1,s1
    3e04:	f606cae3          	bltz	a3,3d78 <__swbuf_r+0x5c>
    3e08:	06442683          	lw	a3,100(s0)
    3e0c:	00002637          	lui	a2,0x2
    3e10:	00c76733          	or	a4,a4,a2
    3e14:	ffffe637          	lui	a2,0xffffe
    3e18:	fff60613          	addi	a2,a2,-1 # ffffdfff <_stack+0xfffbdfff>
    3e1c:	00c6f6b3          	and	a3,a3,a2
    3e20:	00e41623          	sh	a4,12(s0)
    3e24:	00042703          	lw	a4,0(s0)
    3e28:	06d42223          	sw	a3,100(s0)
    3e2c:	01442683          	lw	a3,20(s0)
    3e30:	40f707b3          	sub	a5,a4,a5
    3e34:	f4d7cae3          	blt	a5,a3,3d88 <__swbuf_r+0x6c>
    3e38:	00040593          	mv	a1,s0
    3e3c:	00090513          	mv	a0,s2
    3e40:	619010ef          	jal	ra,5c58 <_fflush_r>
    3e44:	02051e63          	bnez	a0,3e80 <__swbuf_r+0x164>
    3e48:	00042703          	lw	a4,0(s0)
    3e4c:	00842683          	lw	a3,8(s0)
    3e50:	00100793          	li	a5,1
    3e54:	00170613          	addi	a2,a4,1
    3e58:	fff68693          	addi	a3,a3,-1
    3e5c:	00c42023          	sw	a2,0(s0)
    3e60:	00d42423          	sw	a3,8(s0)
    3e64:	01370023          	sb	s3,0(a4)
    3e68:	01442703          	lw	a4,20(s0)
    3e6c:	f4f710e3          	bne	a4,a5,3dac <__swbuf_r+0x90>
    3e70:	00040593          	mv	a1,s0
    3e74:	00090513          	mv	a0,s2
    3e78:	5e1010ef          	jal	ra,5c58 <_fflush_r>
    3e7c:	f40502e3          	beqz	a0,3dc0 <__swbuf_r+0xa4>
    3e80:	fff00493          	li	s1,-1
    3e84:	f3dff06f          	j	3dc0 <__swbuf_r+0xa4>
    3e88:	088020ef          	jal	ra,5f10 <__sinit>
    3e8c:	ec1ff06f          	j	3d4c <__swbuf_r+0x30>

00003e90 <__swbuf>:
    3e90:	00058613          	mv	a2,a1
    3e94:	00050593          	mv	a1,a0
    3e98:	0001c517          	auipc	a0,0x1c
    3e9c:	1f052503          	lw	a0,496(a0) # 20088 <_impure_ptr>
    3ea0:	e7dff06f          	j	3d1c <__swbuf_r>

00003ea4 <_wcrtomb_r>:
    3ea4:	fe010113          	addi	sp,sp,-32
    3ea8:	00812c23          	sw	s0,24(sp)
    3eac:	00912a23          	sw	s1,20(sp)
    3eb0:	00112e23          	sw	ra,28(sp)
    3eb4:	00050493          	mv	s1,a0
    3eb8:	11450413          	addi	s0,a0,276
    3ebc:	00068463          	beqz	a3,3ec4 <_wcrtomb_r+0x20>
    3ec0:	00068413          	mv	s0,a3
    3ec4:	0001e797          	auipc	a5,0x1e
    3ec8:	8f47a783          	lw	a5,-1804(a5) # 217b8 <__global_locale+0xe0>
    3ecc:	00040693          	mv	a3,s0
    3ed0:	02058463          	beqz	a1,3ef8 <_wcrtomb_r+0x54>
    3ed4:	00048513          	mv	a0,s1
    3ed8:	000780e7          	jalr	a5
    3edc:	fff00793          	li	a5,-1
    3ee0:	02f50863          	beq	a0,a5,3f10 <_wcrtomb_r+0x6c>
    3ee4:	01c12083          	lw	ra,28(sp)
    3ee8:	01812403          	lw	s0,24(sp)
    3eec:	01412483          	lw	s1,20(sp)
    3ef0:	02010113          	addi	sp,sp,32
    3ef4:	00008067          	ret
    3ef8:	00000613          	li	a2,0
    3efc:	00410593          	addi	a1,sp,4
    3f00:	00048513          	mv	a0,s1
    3f04:	000780e7          	jalr	a5
    3f08:	fff00793          	li	a5,-1
    3f0c:	fcf51ce3          	bne	a0,a5,3ee4 <_wcrtomb_r+0x40>
    3f10:	00042023          	sw	zero,0(s0)
    3f14:	01c12083          	lw	ra,28(sp)
    3f18:	01812403          	lw	s0,24(sp)
    3f1c:	08a00793          	li	a5,138
    3f20:	00f4a023          	sw	a5,0(s1)
    3f24:	01412483          	lw	s1,20(sp)
    3f28:	02010113          	addi	sp,sp,32
    3f2c:	00008067          	ret

00003f30 <wcrtomb>:
    3f30:	fe010113          	addi	sp,sp,-32
    3f34:	00812c23          	sw	s0,24(sp)
    3f38:	00912a23          	sw	s1,20(sp)
    3f3c:	00060413          	mv	s0,a2
    3f40:	00112e23          	sw	ra,28(sp)
    3f44:	00058613          	mv	a2,a1
    3f48:	0001c497          	auipc	s1,0x1c
    3f4c:	1404a483          	lw	s1,320(s1) # 20088 <_impure_ptr>
    3f50:	02040e63          	beqz	s0,3f8c <wcrtomb+0x5c>
    3f54:	0001e797          	auipc	a5,0x1e
    3f58:	8647a783          	lw	a5,-1948(a5) # 217b8 <__global_locale+0xe0>
    3f5c:	00040693          	mv	a3,s0
    3f60:	04050063          	beqz	a0,3fa0 <wcrtomb+0x70>
    3f64:	00050593          	mv	a1,a0
    3f68:	00048513          	mv	a0,s1
    3f6c:	000780e7          	jalr	a5
    3f70:	fff00793          	li	a5,-1
    3f74:	04f50263          	beq	a0,a5,3fb8 <wcrtomb+0x88>
    3f78:	01c12083          	lw	ra,28(sp)
    3f7c:	01812403          	lw	s0,24(sp)
    3f80:	01412483          	lw	s1,20(sp)
    3f84:	02010113          	addi	sp,sp,32
    3f88:	00008067          	ret
    3f8c:	11448413          	addi	s0,s1,276
    3f90:	0001e797          	auipc	a5,0x1e
    3f94:	8287a783          	lw	a5,-2008(a5) # 217b8 <__global_locale+0xe0>
    3f98:	00040693          	mv	a3,s0
    3f9c:	fc0514e3          	bnez	a0,3f64 <wcrtomb+0x34>
    3fa0:	00000613          	li	a2,0
    3fa4:	00410593          	addi	a1,sp,4
    3fa8:	00048513          	mv	a0,s1
    3fac:	000780e7          	jalr	a5
    3fb0:	fff00793          	li	a5,-1
    3fb4:	fcf512e3          	bne	a0,a5,3f78 <wcrtomb+0x48>
    3fb8:	00042023          	sw	zero,0(s0)
    3fbc:	01c12083          	lw	ra,28(sp)
    3fc0:	01812403          	lw	s0,24(sp)
    3fc4:	08a00793          	li	a5,138
    3fc8:	00f4a023          	sw	a5,0(s1)
    3fcc:	01412483          	lw	s1,20(sp)
    3fd0:	02010113          	addi	sp,sp,32
    3fd4:	00008067          	ret

00003fd8 <_wcsrtombs_r>:
    3fd8:	00070793          	mv	a5,a4
    3fdc:	00068713          	mv	a4,a3
    3fe0:	fff00693          	li	a3,-1
    3fe4:	6310706f          	j	be14 <_wcsnrtombs_r>

00003fe8 <wcsrtombs>:
    3fe8:	00060713          	mv	a4,a2
    3fec:	00068793          	mv	a5,a3
    3ff0:	00058613          	mv	a2,a1
    3ff4:	fff00693          	li	a3,-1
    3ff8:	00050593          	mv	a1,a0
    3ffc:	0001c517          	auipc	a0,0x1c
    4000:	08c52503          	lw	a0,140(a0) # 20088 <_impure_ptr>
    4004:	6110706f          	j	be14 <_wcsnrtombs_r>

00004008 <__swsetup_r>:
    4008:	ff010113          	addi	sp,sp,-16
    400c:	00812423          	sw	s0,8(sp)
    4010:	00912223          	sw	s1,4(sp)
    4014:	00112623          	sw	ra,12(sp)
    4018:	0001c797          	auipc	a5,0x1c
    401c:	0707a783          	lw	a5,112(a5) # 20088 <_impure_ptr>
    4020:	00050493          	mv	s1,a0
    4024:	00058413          	mv	s0,a1
    4028:	00078663          	beqz	a5,4034 <__swsetup_r+0x2c>
    402c:	0387a703          	lw	a4,56(a5)
    4030:	08070063          	beqz	a4,40b0 <__swsetup_r+0xa8>
    4034:	00c41783          	lh	a5,12(s0)
    4038:	0087f713          	andi	a4,a5,8
    403c:	08070463          	beqz	a4,40c4 <__swsetup_r+0xbc>
    4040:	01042703          	lw	a4,16(s0)
    4044:	0a070063          	beqz	a4,40e4 <__swsetup_r+0xdc>
    4048:	0017f693          	andi	a3,a5,1
    404c:	02068863          	beqz	a3,407c <__swsetup_r+0x74>
    4050:	01442683          	lw	a3,20(s0)
    4054:	00042423          	sw	zero,8(s0)
    4058:	00000513          	li	a0,0
    405c:	40d006b3          	neg	a3,a3
    4060:	00d42c23          	sw	a3,24(s0)
    4064:	02070a63          	beqz	a4,4098 <__swsetup_r+0x90>
    4068:	00c12083          	lw	ra,12(sp)
    406c:	00812403          	lw	s0,8(sp)
    4070:	00412483          	lw	s1,4(sp)
    4074:	01010113          	addi	sp,sp,16
    4078:	00008067          	ret
    407c:	0027f693          	andi	a3,a5,2
    4080:	00000613          	li	a2,0
    4084:	00069463          	bnez	a3,408c <__swsetup_r+0x84>
    4088:	01442603          	lw	a2,20(s0)
    408c:	00c42423          	sw	a2,8(s0)
    4090:	00000513          	li	a0,0
    4094:	fc071ae3          	bnez	a4,4068 <__swsetup_r+0x60>
    4098:	0807f713          	andi	a4,a5,128
    409c:	fc0706e3          	beqz	a4,4068 <__swsetup_r+0x60>
    40a0:	0407e793          	ori	a5,a5,64
    40a4:	00f41623          	sh	a5,12(s0)
    40a8:	fff00513          	li	a0,-1
    40ac:	fbdff06f          	j	4068 <__swsetup_r+0x60>
    40b0:	00078513          	mv	a0,a5
    40b4:	65d010ef          	jal	ra,5f10 <__sinit>
    40b8:	00c41783          	lh	a5,12(s0)
    40bc:	0087f713          	andi	a4,a5,8
    40c0:	f80710e3          	bnez	a4,4040 <__swsetup_r+0x38>
    40c4:	0107f713          	andi	a4,a5,16
    40c8:	06070a63          	beqz	a4,413c <__swsetup_r+0x134>
    40cc:	0047f713          	andi	a4,a5,4
    40d0:	02071c63          	bnez	a4,4108 <__swsetup_r+0x100>
    40d4:	01042703          	lw	a4,16(s0)
    40d8:	0087e793          	ori	a5,a5,8
    40dc:	00f41623          	sh	a5,12(s0)
    40e0:	f60714e3          	bnez	a4,4048 <__swsetup_r+0x40>
    40e4:	2807f693          	andi	a3,a5,640
    40e8:	20000613          	li	a2,512
    40ec:	f4c68ee3          	beq	a3,a2,4048 <__swsetup_r+0x40>
    40f0:	00040593          	mv	a1,s0
    40f4:	00048513          	mv	a0,s1
    40f8:	484030ef          	jal	ra,757c <__smakebuf_r>
    40fc:	00c41783          	lh	a5,12(s0)
    4100:	01042703          	lw	a4,16(s0)
    4104:	f45ff06f          	j	4048 <__swsetup_r+0x40>
    4108:	03042583          	lw	a1,48(s0)
    410c:	00058e63          	beqz	a1,4128 <__swsetup_r+0x120>
    4110:	04040713          	addi	a4,s0,64
    4114:	00e58863          	beq	a1,a4,4124 <__swsetup_r+0x11c>
    4118:	00048513          	mv	a0,s1
    411c:	2d0020ef          	jal	ra,63ec <_free_r>
    4120:	00c41783          	lh	a5,12(s0)
    4124:	02042823          	sw	zero,48(s0)
    4128:	01042703          	lw	a4,16(s0)
    412c:	fdb7f793          	andi	a5,a5,-37
    4130:	00042223          	sw	zero,4(s0)
    4134:	00e42023          	sw	a4,0(s0)
    4138:	fa1ff06f          	j	40d8 <__swsetup_r+0xd0>
    413c:	00900713          	li	a4,9
    4140:	00e4a023          	sw	a4,0(s1)
    4144:	0407e793          	ori	a5,a5,64
    4148:	f5dff06f          	j	40a4 <__swsetup_r+0x9c>

0000414c <quorem>:
    414c:	fe010113          	addi	sp,sp,-32
    4150:	00912a23          	sw	s1,20(sp)
    4154:	01052783          	lw	a5,16(a0)
    4158:	0105a483          	lw	s1,16(a1)
    415c:	00112e23          	sw	ra,28(sp)
    4160:	00812c23          	sw	s0,24(sp)
    4164:	01212823          	sw	s2,16(sp)
    4168:	01312623          	sw	s3,12(sp)
    416c:	01412423          	sw	s4,8(sp)
    4170:	01512223          	sw	s5,4(sp)
    4174:	1a97c663          	blt	a5,s1,4320 <quorem+0x1d4>
    4178:	fff48493          	addi	s1,s1,-1
    417c:	00249313          	slli	t1,s1,0x2
    4180:	01458413          	addi	s0,a1,20
    4184:	006409b3          	add	s3,s0,t1
    4188:	01450a13          	addi	s4,a0,20
    418c:	0009a783          	lw	a5,0(s3)
    4190:	006a0333          	add	t1,s4,t1
    4194:	00032703          	lw	a4,0(t1)
    4198:	00178793          	addi	a5,a5,1
    419c:	00050a93          	mv	s5,a0
    41a0:	02f75933          	divu	s2,a4,a5
    41a4:	0af76a63          	bltu	a4,a5,4258 <quorem+0x10c>
    41a8:	00010537          	lui	a0,0x10
    41ac:	00040893          	mv	a7,s0
    41b0:	000a0813          	mv	a6,s4
    41b4:	00000e93          	li	t4,0
    41b8:	00000693          	li	a3,0
    41bc:	fff50513          	addi	a0,a0,-1 # ffff <__unorddf2+0x33>
    41c0:	0008a703          	lw	a4,0(a7)
    41c4:	00082e03          	lw	t3,0(a6)
    41c8:	00480813          	addi	a6,a6,4
    41cc:	00a77633          	and	a2,a4,a0
    41d0:	01075713          	srli	a4,a4,0x10
    41d4:	00ae77b3          	and	a5,t3,a0
    41d8:	010e5e13          	srli	t3,t3,0x10
    41dc:	00488893          	addi	a7,a7,4
    41e0:	03260633          	mul	a2,a2,s2
    41e4:	03270733          	mul	a4,a4,s2
    41e8:	01d60633          	add	a2,a2,t4
    41ec:	00a67eb3          	and	t4,a2,a0
    41f0:	41d787b3          	sub	a5,a5,t4
    41f4:	01065613          	srli	a2,a2,0x10
    41f8:	00d787b3          	add	a5,a5,a3
    41fc:	4107d693          	srai	a3,a5,0x10
    4200:	00a7f7b3          	and	a5,a5,a0
    4204:	00c70733          	add	a4,a4,a2
    4208:	00a77633          	and	a2,a4,a0
    420c:	40c686b3          	sub	a3,a3,a2
    4210:	01c686b3          	add	a3,a3,t3
    4214:	01069613          	slli	a2,a3,0x10
    4218:	00c7e7b3          	or	a5,a5,a2
    421c:	fef82e23          	sw	a5,-4(a6)
    4220:	01075e93          	srli	t4,a4,0x10
    4224:	4106d693          	srai	a3,a3,0x10
    4228:	f919fce3          	bgeu	s3,a7,41c0 <quorem+0x74>
    422c:	00032783          	lw	a5,0(t1)
    4230:	02079463          	bnez	a5,4258 <quorem+0x10c>
    4234:	ffc30313          	addi	t1,t1,-4
    4238:	006a6863          	bltu	s4,t1,4248 <quorem+0xfc>
    423c:	0180006f          	j	4254 <quorem+0x108>
    4240:	fff48493          	addi	s1,s1,-1
    4244:	006a7863          	bgeu	s4,t1,4254 <quorem+0x108>
    4248:	00032783          	lw	a5,0(t1)
    424c:	ffc30313          	addi	t1,t1,-4
    4250:	fe0788e3          	beqz	a5,4240 <quorem+0xf4>
    4254:	009aa823          	sw	s1,16(s5)
    4258:	000a8513          	mv	a0,s5
    425c:	41d040ef          	jal	ra,8e78 <__mcmp>
    4260:	08054c63          	bltz	a0,42f8 <quorem+0x1ac>
    4264:	00010537          	lui	a0,0x10
    4268:	000a0593          	mv	a1,s4
    426c:	00000713          	li	a4,0
    4270:	fff50513          	addi	a0,a0,-1 # ffff <__unorddf2+0x33>
    4274:	0005a683          	lw	a3,0(a1)
    4278:	00042603          	lw	a2,0(s0)
    427c:	00458593          	addi	a1,a1,4
    4280:	00a6f7b3          	and	a5,a3,a0
    4284:	00a67833          	and	a6,a2,a0
    4288:	410787b3          	sub	a5,a5,a6
    428c:	00e787b3          	add	a5,a5,a4
    4290:	4107d713          	srai	a4,a5,0x10
    4294:	01065613          	srli	a2,a2,0x10
    4298:	0106d693          	srli	a3,a3,0x10
    429c:	40c70733          	sub	a4,a4,a2
    42a0:	00d70733          	add	a4,a4,a3
    42a4:	01071693          	slli	a3,a4,0x10
    42a8:	00a7f7b3          	and	a5,a5,a0
    42ac:	00d7e7b3          	or	a5,a5,a3
    42b0:	00440413          	addi	s0,s0,4
    42b4:	fef5ae23          	sw	a5,-4(a1)
    42b8:	41075713          	srai	a4,a4,0x10
    42bc:	fa89fce3          	bgeu	s3,s0,4274 <quorem+0x128>
    42c0:	00249793          	slli	a5,s1,0x2
    42c4:	00fa07b3          	add	a5,s4,a5
    42c8:	0007a703          	lw	a4,0(a5)
    42cc:	02071463          	bnez	a4,42f4 <quorem+0x1a8>
    42d0:	ffc78793          	addi	a5,a5,-4
    42d4:	00fa6863          	bltu	s4,a5,42e4 <quorem+0x198>
    42d8:	0180006f          	j	42f0 <quorem+0x1a4>
    42dc:	fff48493          	addi	s1,s1,-1
    42e0:	00fa7863          	bgeu	s4,a5,42f0 <quorem+0x1a4>
    42e4:	0007a703          	lw	a4,0(a5)
    42e8:	ffc78793          	addi	a5,a5,-4
    42ec:	fe0708e3          	beqz	a4,42dc <quorem+0x190>
    42f0:	009aa823          	sw	s1,16(s5)
    42f4:	00190913          	addi	s2,s2,1
    42f8:	00090513          	mv	a0,s2
    42fc:	01c12083          	lw	ra,28(sp)
    4300:	01812403          	lw	s0,24(sp)
    4304:	01412483          	lw	s1,20(sp)
    4308:	01012903          	lw	s2,16(sp)
    430c:	00c12983          	lw	s3,12(sp)
    4310:	00812a03          	lw	s4,8(sp)
    4314:	00412a83          	lw	s5,4(sp)
    4318:	02010113          	addi	sp,sp,32
    431c:	00008067          	ret
    4320:	00000513          	li	a0,0
    4324:	fd9ff06f          	j	42fc <quorem+0x1b0>

00004328 <_dtoa_r>:
    4328:	04052303          	lw	t1,64(a0)
    432c:	f5010113          	addi	sp,sp,-176
    4330:	0a812423          	sw	s0,168(sp)
    4334:	0a912223          	sw	s1,164(sp)
    4338:	0b212023          	sw	s2,160(sp)
    433c:	09312e23          	sw	s3,156(sp)
    4340:	09a12023          	sw	s10,128(sp)
    4344:	07b12e23          	sw	s11,124(sp)
    4348:	0a112623          	sw	ra,172(sp)
    434c:	09412c23          	sw	s4,152(sp)
    4350:	09512a23          	sw	s5,148(sp)
    4354:	09612823          	sw	s6,144(sp)
    4358:	09712623          	sw	s7,140(sp)
    435c:	09812423          	sw	s8,136(sp)
    4360:	09912223          	sw	s9,132(sp)
    4364:	00e12823          	sw	a4,16(sp)
    4368:	00f12223          	sw	a5,4(sp)
    436c:	01112023          	sw	a7,0(sp)
    4370:	02b12423          	sw	a1,40(sp)
    4374:	00050413          	mv	s0,a0
    4378:	00058d93          	mv	s11,a1
    437c:	00060493          	mv	s1,a2
    4380:	00068993          	mv	s3,a3
    4384:	00080913          	mv	s2,a6
    4388:	00060d13          	mv	s10,a2
    438c:	02030263          	beqz	t1,43b0 <_dtoa_r+0x88>
    4390:	04452703          	lw	a4,68(a0)
    4394:	00100793          	li	a5,1
    4398:	00030593          	mv	a1,t1
    439c:	00e797b3          	sll	a5,a5,a4
    43a0:	00e32223          	sw	a4,4(t1)
    43a4:	00f32423          	sw	a5,8(t1)
    43a8:	110040ef          	jal	ra,84b8 <_Bfree>
    43ac:	04042023          	sw	zero,64(s0)
    43b0:	00048a93          	mv	s5,s1
    43b4:	00000693          	li	a3,0
    43b8:	0004da63          	bgez	s1,43cc <_dtoa_r+0xa4>
    43bc:	00149493          	slli	s1,s1,0x1
    43c0:	0014dd13          	srli	s10,s1,0x1
    43c4:	000d0a93          	mv	s5,s10
    43c8:	00100693          	li	a3,1
    43cc:	7ff00737          	lui	a4,0x7ff00
    43d0:	00d92023          	sw	a3,0(s2)
    43d4:	00eaf6b3          	and	a3,s5,a4
    43d8:	66e68663          	beq	a3,a4,4a44 <_dtoa_r+0x71c>
    43dc:	000d8513          	mv	a0,s11
    43e0:	000d0593          	mv	a1,s10
    43e4:	00000613          	li	a2,0
    43e8:	00000693          	li	a3,0
    43ec:	1190a0ef          	jal	ra,ed04 <__eqdf2>
    43f0:	01b12a23          	sw	s11,20(sp)
    43f4:	01a12c23          	sw	s10,24(sp)
    43f8:	06051663          	bnez	a0,4464 <_dtoa_r+0x13c>
    43fc:	00412703          	lw	a4,4(sp)
    4400:	00100793          	li	a5,1
    4404:	00f72023          	sw	a5,0(a4) # 7ff00000 <_stack+0x7fec0000>
    4408:	00012703          	lw	a4,0(sp)
    440c:	00070863          	beqz	a4,441c <_dtoa_r+0xf4>
    4410:	0001c797          	auipc	a5,0x1c
    4414:	d3578793          	addi	a5,a5,-715 # 20145 <environ+0xb9>
    4418:	00f72023          	sw	a5,0(a4)
    441c:	0001ca97          	auipc	s5,0x1c
    4420:	d28a8a93          	addi	s5,s5,-728 # 20144 <environ+0xb8>
    4424:	0ac12083          	lw	ra,172(sp)
    4428:	0a812403          	lw	s0,168(sp)
    442c:	0a412483          	lw	s1,164(sp)
    4430:	0a012903          	lw	s2,160(sp)
    4434:	09c12983          	lw	s3,156(sp)
    4438:	09812a03          	lw	s4,152(sp)
    443c:	09012b03          	lw	s6,144(sp)
    4440:	08c12b83          	lw	s7,140(sp)
    4444:	08812c03          	lw	s8,136(sp)
    4448:	08412c83          	lw	s9,132(sp)
    444c:	08012d03          	lw	s10,128(sp)
    4450:	07c12d83          	lw	s11,124(sp)
    4454:	000a8513          	mv	a0,s5
    4458:	09412a83          	lw	s5,148(sp)
    445c:	0b010113          	addi	sp,sp,176
    4460:	00008067          	ret
    4464:	06810713          	addi	a4,sp,104
    4468:	06c10693          	addi	a3,sp,108
    446c:	000d0613          	mv	a2,s10
    4470:	000d8593          	mv	a1,s11
    4474:	00040513          	mv	a0,s0
    4478:	62d040ef          	jal	ra,92a4 <__d2b>
    447c:	014ad913          	srli	s2,s5,0x14
    4480:	00050493          	mv	s1,a0
    4484:	60091263          	bnez	s2,4a88 <_dtoa_r+0x760>
    4488:	06812a03          	lw	s4,104(sp)
    448c:	06c12903          	lw	s2,108(sp)
    4490:	02000793          	li	a5,32
    4494:	012a0933          	add	s2,s4,s2
    4498:	43290713          	addi	a4,s2,1074
    449c:	36e7dee3          	bge	a5,a4,5018 <_dtoa_r+0xcf0>
    44a0:	04000793          	li	a5,64
    44a4:	40e787b3          	sub	a5,a5,a4
    44a8:	41290513          	addi	a0,s2,1042
    44ac:	00fa97b3          	sll	a5,s5,a5
    44b0:	00add533          	srl	a0,s11,a0
    44b4:	00a7e533          	or	a0,a5,a0
    44b8:	4a50b0ef          	jal	ra,1015c <__floatunsidf>
    44bc:	fe1007b7          	lui	a5,0xfe100
    44c0:	00100693          	li	a3,1
    44c4:	00050713          	mv	a4,a0
    44c8:	00b787b3          	add	a5,a5,a1
    44cc:	fff90913          	addi	s2,s2,-1
    44d0:	02d12a23          	sw	a3,52(sp)
    44d4:	0001c697          	auipc	a3,0x1c
    44d8:	b5c68693          	addi	a3,a3,-1188 # 20030 <__DTOR_END__+0x20>
    44dc:	0006a603          	lw	a2,0(a3)
    44e0:	0046a683          	lw	a3,4(a3)
    44e4:	00070513          	mv	a0,a4
    44e8:	00078593          	mv	a1,a5
    44ec:	1cc0b0ef          	jal	ra,f6b8 <__subdf3>
    44f0:	0001c797          	auipc	a5,0x1c
    44f4:	b4878793          	addi	a5,a5,-1208 # 20038 <__DTOR_END__+0x28>
    44f8:	0007a603          	lw	a2,0(a5)
    44fc:	0047a683          	lw	a3,4(a5)
    4500:	2950a0ef          	jal	ra,ef94 <__muldf3>
    4504:	0001c797          	auipc	a5,0x1c
    4508:	b3c78793          	addi	a5,a5,-1220 # 20040 <__DTOR_END__+0x30>
    450c:	0007a603          	lw	a2,0(a5)
    4510:	0047a683          	lw	a3,4(a5)
    4514:	7a4090ef          	jal	ra,dcb8 <__adddf3>
    4518:	00050b13          	mv	s6,a0
    451c:	00090513          	mv	a0,s2
    4520:	00058a93          	mv	s5,a1
    4524:	3810b0ef          	jal	ra,100a4 <__floatsidf>
    4528:	0001c797          	auipc	a5,0x1c
    452c:	b2078793          	addi	a5,a5,-1248 # 20048 <__DTOR_END__+0x38>
    4530:	0007a603          	lw	a2,0(a5)
    4534:	0047a683          	lw	a3,4(a5)
    4538:	25d0a0ef          	jal	ra,ef94 <__muldf3>
    453c:	00050613          	mv	a2,a0
    4540:	00058693          	mv	a3,a1
    4544:	000b0513          	mv	a0,s6
    4548:	000a8593          	mv	a1,s5
    454c:	76c090ef          	jal	ra,dcb8 <__adddf3>
    4550:	00050b13          	mv	s6,a0
    4554:	00058a93          	mv	s5,a1
    4558:	2c90b0ef          	jal	ra,10020 <__fixdfsi>
    455c:	00050c13          	mv	s8,a0
    4560:	000a8593          	mv	a1,s5
    4564:	000b0513          	mv	a0,s6
    4568:	00000613          	li	a2,0
    456c:	00000693          	li	a3,0
    4570:	1250a0ef          	jal	ra,ee94 <__ledf2>
    4574:	02055063          	bgez	a0,4594 <_dtoa_r+0x26c>
    4578:	000c0513          	mv	a0,s8
    457c:	3290b0ef          	jal	ra,100a4 <__floatsidf>
    4580:	000b0613          	mv	a2,s6
    4584:	000a8693          	mv	a3,s5
    4588:	77c0a0ef          	jal	ra,ed04 <__eqdf2>
    458c:	00a03533          	snez	a0,a0
    4590:	40ac0c33          	sub	s8,s8,a0
    4594:	412a0a33          	sub	s4,s4,s2
    4598:	01600793          	li	a5,22
    459c:	fffa0b13          	addi	s6,s4,-1
    45a0:	2387e6e3          	bltu	a5,s8,4fcc <_dtoa_r+0xca4>
    45a4:	0001c917          	auipc	s2,0x1c
    45a8:	42c90913          	addi	s2,s2,1068 # 209d0 <__mprec_tens>
    45ac:	003c1793          	slli	a5,s8,0x3
    45b0:	00f907b3          	add	a5,s2,a5
    45b4:	0007a603          	lw	a2,0(a5)
    45b8:	0047a683          	lw	a3,4(a5)
    45bc:	01412503          	lw	a0,20(sp)
    45c0:	01812583          	lw	a1,24(sp)
    45c4:	0d10a0ef          	jal	ra,ee94 <__ledf2>
    45c8:	280556e3          	bgez	a0,5054 <_dtoa_r+0xd2c>
    45cc:	fffc0c13          	addi	s8,s8,-1
    45d0:	02012823          	sw	zero,48(sp)
    45d4:	00012423          	sw	zero,8(sp)
    45d8:	4c0b4c63          	bltz	s6,4ab0 <_dtoa_r+0x788>
    45dc:	4e0c5463          	bgez	s8,4ac4 <_dtoa_r+0x79c>
    45e0:	00812783          	lw	a5,8(sp)
    45e4:	01812e23          	sw	s8,28(sp)
    45e8:	418787b3          	sub	a5,a5,s8
    45ec:	00f12423          	sw	a5,8(sp)
    45f0:	418007b3          	neg	a5,s8
    45f4:	02f12623          	sw	a5,44(sp)
    45f8:	00900793          	li	a5,9
    45fc:	00000c13          	li	s8,0
    4600:	4d37ec63          	bltu	a5,s3,4ad8 <_dtoa_r+0x7b0>
    4604:	00500793          	li	a5,5
    4608:	2137dee3          	bge	a5,s3,5024 <_dtoa_r+0xcfc>
    460c:	ffc98993          	addi	s3,s3,-4
    4610:	00300793          	li	a5,3
    4614:	00000913          	li	s2,0
    4618:	64f988e3          	beq	s3,a5,5468 <_dtoa_r+0x1140>
    461c:	6137d8e3          	bge	a5,s3,542c <_dtoa_r+0x1104>
    4620:	00400793          	li	a5,4
    4624:	50f986e3          	beq	s3,a5,5330 <_dtoa_r+0x1008>
    4628:	00100793          	li	a5,1
    462c:	00500993          	li	s3,5
    4630:	02f12023          	sw	a5,32(sp)
    4634:	01012783          	lw	a5,16(sp)
    4638:	01c12703          	lw	a4,28(sp)
    463c:	00e787b3          	add	a5,a5,a4
    4640:	00178a13          	addi	s4,a5,1
    4644:	04f12023          	sw	a5,64(sp)
    4648:	000a0613          	mv	a2,s4
    464c:	01404463          	bgtz	s4,4654 <_dtoa_r+0x32c>
    4650:	00100613          	li	a2,1
    4654:	01700693          	li	a3,23
    4658:	00100713          	li	a4,1
    465c:	00400793          	li	a5,4
    4660:	00c6c463          	blt	a3,a2,4668 <_dtoa_r+0x340>
    4664:	3380106f          	j	599c <_dtoa_r+0x1674>
    4668:	00179793          	slli	a5,a5,0x1
    466c:	01478693          	addi	a3,a5,20
    4670:	00070593          	mv	a1,a4
    4674:	00170713          	addi	a4,a4,1
    4678:	fed678e3          	bgeu	a2,a3,4668 <_dtoa_r+0x340>
    467c:	04b42223          	sw	a1,68(s0)
    4680:	00040513          	mv	a0,s0
    4684:	58d030ef          	jal	ra,8410 <_Balloc>
    4688:	00050a93          	mv	s5,a0
    468c:	00051463          	bnez	a0,4694 <_dtoa_r+0x36c>
    4690:	2f00106f          	j	5980 <_dtoa_r+0x1658>
    4694:	04a42023          	sw	a0,64(s0)
    4698:	00e00793          	li	a5,14
    469c:	5347e263          	bltu	a5,s4,4bc0 <_dtoa_r+0x898>
    46a0:	52090063          	beqz	s2,4bc0 <_dtoa_r+0x898>
    46a4:	01c12703          	lw	a4,28(sp)
    46a8:	60e050e3          	blez	a4,54a8 <_dtoa_r+0x1180>
    46ac:	00f77793          	andi	a5,a4,15
    46b0:	40475c93          	srai	s9,a4,0x4
    46b4:	0001c917          	auipc	s2,0x1c
    46b8:	31c90913          	addi	s2,s2,796 # 209d0 <__mprec_tens>
    46bc:	00379793          	slli	a5,a5,0x3
    46c0:	00f907b3          	add	a5,s2,a5
    46c4:	010cf693          	andi	a3,s9,16
    46c8:	0007a803          	lw	a6,0(a5)
    46cc:	0047a703          	lw	a4,4(a5)
    46d0:	540686e3          	beqz	a3,541c <_dtoa_r+0x10f4>
    46d4:	0001c797          	auipc	a5,0x1c
    46d8:	2d478793          	addi	a5,a5,724 # 209a8 <__mprec_bigtens>
    46dc:	0207a603          	lw	a2,32(a5)
    46e0:	0247a683          	lw	a3,36(a5)
    46e4:	01412503          	lw	a0,20(sp)
    46e8:	01812583          	lw	a1,24(sp)
    46ec:	04e12223          	sw	a4,68(sp)
    46f0:	03012c23          	sw	a6,56(sp)
    46f4:	68d090ef          	jal	ra,e580 <__divdf3>
    46f8:	03812803          	lw	a6,56(sp)
    46fc:	04412703          	lw	a4,68(sp)
    4700:	00fcfc93          	andi	s9,s9,15
    4704:	00050313          	mv	t1,a0
    4708:	00058893          	mv	a7,a1
    470c:	00300913          	li	s2,3
    4710:	060c8663          	beqz	s9,477c <_dtoa_r+0x454>
    4714:	0001cb97          	auipc	s7,0x1c
    4718:	294b8b93          	addi	s7,s7,660 # 209a8 <__mprec_bigtens>
    471c:	02912c23          	sw	s1,56(sp)
    4720:	04812223          	sw	s0,68(sp)
    4724:	00090493          	mv	s1,s2
    4728:	000b8413          	mv	s0,s7
    472c:	00088913          	mv	s2,a7
    4730:	00030b93          	mv	s7,t1
    4734:	00070593          	mv	a1,a4
    4738:	001cf693          	andi	a3,s9,1
    473c:	00068e63          	beqz	a3,4758 <_dtoa_r+0x430>
    4740:	00042603          	lw	a2,0(s0)
    4744:	00442683          	lw	a3,4(s0)
    4748:	00080513          	mv	a0,a6
    474c:	00148493          	addi	s1,s1,1
    4750:	0450a0ef          	jal	ra,ef94 <__muldf3>
    4754:	00050813          	mv	a6,a0
    4758:	401cdc93          	srai	s9,s9,0x1
    475c:	00840413          	addi	s0,s0,8
    4760:	fc0c9ce3          	bnez	s9,4738 <_dtoa_r+0x410>
    4764:	00090893          	mv	a7,s2
    4768:	04412403          	lw	s0,68(sp)
    476c:	00048913          	mv	s2,s1
    4770:	03812483          	lw	s1,56(sp)
    4774:	000b8313          	mv	t1,s7
    4778:	00058713          	mv	a4,a1
    477c:	00080613          	mv	a2,a6
    4780:	00030513          	mv	a0,t1
    4784:	00070693          	mv	a3,a4
    4788:	00088593          	mv	a1,a7
    478c:	5f5090ef          	jal	ra,e580 <__divdf3>
    4790:	00050793          	mv	a5,a0
    4794:	00058b93          	mv	s7,a1
    4798:	03012703          	lw	a4,48(sp)
    479c:	02070863          	beqz	a4,47cc <_dtoa_r+0x4a4>
    47a0:	0001c697          	auipc	a3,0x1c
    47a4:	8b068693          	addi	a3,a3,-1872 # 20050 <__DTOR_END__+0x40>
    47a8:	0006a603          	lw	a2,0(a3)
    47ac:	0046a683          	lw	a3,4(a3)
    47b0:	00078513          	mv	a0,a5
    47b4:	000b8593          	mv	a1,s7
    47b8:	02f12c23          	sw	a5,56(sp)
    47bc:	6d80a0ef          	jal	ra,ee94 <__ledf2>
    47c0:	03812783          	lw	a5,56(sp)
    47c4:	00055463          	bgez	a0,47cc <_dtoa_r+0x4a4>
    47c8:	0300106f          	j	57f8 <_dtoa_r+0x14d0>
    47cc:	00090513          	mv	a0,s2
    47d0:	02f12c23          	sw	a5,56(sp)
    47d4:	0d10b0ef          	jal	ra,100a4 <__floatsidf>
    47d8:	03812783          	lw	a5,56(sp)
    47dc:	000b8693          	mv	a3,s7
    47e0:	00078613          	mv	a2,a5
    47e4:	04f12223          	sw	a5,68(sp)
    47e8:	7ac0a0ef          	jal	ra,ef94 <__muldf3>
    47ec:	0001c717          	auipc	a4,0x1c
    47f0:	87470713          	addi	a4,a4,-1932 # 20060 <__DTOR_END__+0x50>
    47f4:	00072603          	lw	a2,0(a4)
    47f8:	00472683          	lw	a3,4(a4)
    47fc:	4bc090ef          	jal	ra,dcb8 <__adddf3>
    4800:	fcc00737          	lui	a4,0xfcc00
    4804:	00b707b3          	add	a5,a4,a1
    4808:	02f12c23          	sw	a5,56(sp)
    480c:	00050c93          	mv	s9,a0
    4810:	04412783          	lw	a5,68(sp)
    4814:	340a0863          	beqz	s4,4b64 <_dtoa_r+0x83c>
    4818:	01c12703          	lw	a4,28(sp)
    481c:	05412223          	sw	s4,68(sp)
    4820:	04e12c23          	sw	a4,88(sp)
    4824:	04412703          	lw	a4,68(sp)
    4828:	0001c917          	auipc	s2,0x1c
    482c:	1a890913          	addi	s2,s2,424 # 209d0 <__mprec_tens>
    4830:	00078513          	mv	a0,a5
    4834:	fff70713          	addi	a4,a4,-1 # fcbfffff <_stack+0xfcbbffff>
    4838:	00371713          	slli	a4,a4,0x3
    483c:	00e90733          	add	a4,s2,a4
    4840:	00472803          	lw	a6,4(a4)
    4844:	04f12623          	sw	a5,76(sp)
    4848:	00072783          	lw	a5,0(a4)
    484c:	000b8593          	mv	a1,s7
    4850:	05012a23          	sw	a6,84(sp)
    4854:	04f12823          	sw	a5,80(sp)
    4858:	7c80b0ef          	jal	ra,10020 <__fixdfsi>
    485c:	04a12423          	sw	a0,72(sp)
    4860:	0450b0ef          	jal	ra,100a4 <__floatsidf>
    4864:	04c12783          	lw	a5,76(sp)
    4868:	00058693          	mv	a3,a1
    486c:	00050613          	mv	a2,a0
    4870:	000b8593          	mv	a1,s7
    4874:	00078513          	mv	a0,a5
    4878:	6410a0ef          	jal	ra,f6b8 <__subdf3>
    487c:	04812703          	lw	a4,72(sp)
    4880:	000c8793          	mv	a5,s9
    4884:	03812b83          	lw	s7,56(sp)
    4888:	03070693          	addi	a3,a4,48
    488c:	0ff6f813          	zext.b	a6,a3
    4890:	02012683          	lw	a3,32(sp)
    4894:	00050c93          	mv	s9,a0
    4898:	001a8713          	addi	a4,s5,1
    489c:	5c0686e3          	beqz	a3,5668 <_dtoa_r+0x1340>
    48a0:	0001b697          	auipc	a3,0x1b
    48a4:	78868693          	addi	a3,a3,1928 # 20028 <__DTOR_END__+0x18>
    48a8:	0006a503          	lw	a0,0(a3)
    48ac:	05012603          	lw	a2,80(sp)
    48b0:	02b12c23          	sw	a1,56(sp)
    48b4:	0046a583          	lw	a1,4(a3)
    48b8:	05412683          	lw	a3,84(sp)
    48bc:	04e12423          	sw	a4,72(sp)
    48c0:	05012623          	sw	a6,76(sp)
    48c4:	04f12e23          	sw	a5,92(sp)
    48c8:	4b9090ef          	jal	ra,e580 <__divdf3>
    48cc:	05c12783          	lw	a5,92(sp)
    48d0:	000b8693          	mv	a3,s7
    48d4:	00078613          	mv	a2,a5
    48d8:	5e10a0ef          	jal	ra,f6b8 <__subdf3>
    48dc:	03812883          	lw	a7,56(sp)
    48e0:	04c12803          	lw	a6,76(sp)
    48e4:	000c8613          	mv	a2,s9
    48e8:	00088693          	mv	a3,a7
    48ec:	010a8023          	sb	a6,0(s5)
    48f0:	00050913          	mv	s2,a0
    48f4:	00058b93          	mv	s7,a1
    48f8:	4980a0ef          	jal	ra,ed90 <__gedf2>
    48fc:	03812883          	lw	a7,56(sp)
    4900:	04812703          	lw	a4,72(sp)
    4904:	00a05463          	blez	a0,490c <_dtoa_r+0x5e4>
    4908:	7a90006f          	j	58b0 <_dtoa_r+0x1588>
    490c:	0001b697          	auipc	a3,0x1b
    4910:	74468693          	addi	a3,a3,1860 # 20050 <__DTOR_END__+0x40>
    4914:	0006a783          	lw	a5,0(a3)
    4918:	0046a803          	lw	a6,4(a3)
    491c:	05812423          	sw	s8,72(sp)
    4920:	02f12c23          	sw	a5,56(sp)
    4924:	00000793          	li	a5,0
    4928:	04412c03          	lw	s8,68(sp)
    492c:	05612623          	sw	s6,76(sp)
    4930:	05412823          	sw	s4,80(sp)
    4934:	05312223          	sw	s3,68(sp)
    4938:	03012e23          	sw	a6,60(sp)
    493c:	00070b13          	mv	s6,a4
    4940:	00078a13          	mv	s4,a5
    4944:	05a12e23          	sw	s10,92(sp)
    4948:	00088993          	mv	s3,a7
    494c:	0980006f          	j	49e4 <_dtoa_r+0x6bc>
    4950:	001a0a13          	addi	s4,s4,1
    4954:	018a4463          	blt	s4,s8,495c <_dtoa_r+0x634>
    4958:	79d0006f          	j	58f4 <_dtoa_r+0x15cc>
    495c:	0001bd17          	auipc	s10,0x1b
    4960:	6fcd0d13          	addi	s10,s10,1788 # 20058 <__DTOR_END__+0x48>
    4964:	000d2603          	lw	a2,0(s10)
    4968:	004d2683          	lw	a3,4(s10)
    496c:	00090513          	mv	a0,s2
    4970:	000b8593          	mv	a1,s7
    4974:	6200a0ef          	jal	ra,ef94 <__muldf3>
    4978:	000d2603          	lw	a2,0(s10)
    497c:	004d2683          	lw	a3,4(s10)
    4980:	00050913          	mv	s2,a0
    4984:	00058b93          	mv	s7,a1
    4988:	000c8513          	mv	a0,s9
    498c:	00098593          	mv	a1,s3
    4990:	6040a0ef          	jal	ra,ef94 <__muldf3>
    4994:	00058c93          	mv	s9,a1
    4998:	00050d13          	mv	s10,a0
    499c:	6840b0ef          	jal	ra,10020 <__fixdfsi>
    49a0:	00050993          	mv	s3,a0
    49a4:	7000b0ef          	jal	ra,100a4 <__floatsidf>
    49a8:	00050613          	mv	a2,a0
    49ac:	00058693          	mv	a3,a1
    49b0:	000d0513          	mv	a0,s10
    49b4:	000c8593          	mv	a1,s9
    49b8:	5010a0ef          	jal	ra,f6b8 <__subdf3>
    49bc:	03098793          	addi	a5,s3,48
    49c0:	00090613          	mv	a2,s2
    49c4:	000b8693          	mv	a3,s7
    49c8:	00fb0023          	sb	a5,0(s6)
    49cc:	001b0b13          	addi	s6,s6,1
    49d0:	00050c93          	mv	s9,a0
    49d4:	00058993          	mv	s3,a1
    49d8:	4bc0a0ef          	jal	ra,ee94 <__ledf2>
    49dc:	00055463          	bgez	a0,49e4 <_dtoa_r+0x6bc>
    49e0:	6cd0006f          	j	58ac <_dtoa_r+0x1584>
    49e4:	03812503          	lw	a0,56(sp)
    49e8:	03c12583          	lw	a1,60(sp)
    49ec:	000c8613          	mv	a2,s9
    49f0:	00098693          	mv	a3,s3
    49f4:	4c50a0ef          	jal	ra,f6b8 <__subdf3>
    49f8:	00090613          	mv	a2,s2
    49fc:	000b8693          	mv	a3,s7
    4a00:	4940a0ef          	jal	ra,ee94 <__ledf2>
    4a04:	f40556e3          	bgez	a0,4950 <_dtoa_r+0x628>
    4a08:	05812783          	lw	a5,88(sp)
    4a0c:	000b0b93          	mv	s7,s6
    4a10:	00178c93          	addi	s9,a5,1
    4a14:	03900613          	li	a2,57
    4a18:	0080006f          	j	4a20 <_dtoa_r+0x6f8>
    4a1c:	677a8ce3          	beq	s5,s7,5894 <_dtoa_r+0x156c>
    4a20:	fffbc683          	lbu	a3,-1(s7)
    4a24:	000b8713          	mv	a4,s7
    4a28:	fffb8b93          	addi	s7,s7,-1
    4a2c:	fec688e3          	beq	a3,a2,4a1c <_dtoa_r+0x6f4>
    4a30:	00168693          	addi	a3,a3,1
    4a34:	0ff6f693          	zext.b	a3,a3
    4a38:	00db8023          	sb	a3,0(s7)
    4a3c:	000c8c13          	mv	s8,s9
    4a40:	4f80006f          	j	4f38 <_dtoa_r+0xc10>
    4a44:	00412683          	lw	a3,4(sp)
    4a48:	00ca9793          	slli	a5,s5,0xc
    4a4c:	00002737          	lui	a4,0x2
    4a50:	00c7d793          	srli	a5,a5,0xc
    4a54:	70f70713          	addi	a4,a4,1807 # 270f <_vfprintf_r+0x175f>
    4a58:	00e6a023          	sw	a4,0(a3)
    4a5c:	01b7e7b3          	or	a5,a5,s11
    4a60:	0a078063          	beqz	a5,4b00 <_dtoa_r+0x7d8>
    4a64:	00012783          	lw	a5,0(sp)
    4a68:	0001ca97          	auipc	s5,0x1c
    4a6c:	910a8a93          	addi	s5,s5,-1776 # 20378 <blanks.1+0x1c>
    4a70:	9a078ae3          	beqz	a5,4424 <_dtoa_r+0xfc>
    4a74:	0001c797          	auipc	a5,0x1c
    4a78:	90778793          	addi	a5,a5,-1785 # 2037b <blanks.1+0x1f>
    4a7c:	00012703          	lw	a4,0(sp)
    4a80:	00f72023          	sw	a5,0(a4)
    4a84:	9a1ff06f          	j	4424 <_dtoa_r+0xfc>
    4a88:	01812783          	lw	a5,24(sp)
    4a8c:	3ff006b7          	lui	a3,0x3ff00
    4a90:	06812a03          	lw	s4,104(sp)
    4a94:	00c79793          	slli	a5,a5,0xc
    4a98:	00c7d793          	srli	a5,a5,0xc
    4a9c:	01412703          	lw	a4,20(sp)
    4aa0:	00d7e7b3          	or	a5,a5,a3
    4aa4:	c0190913          	addi	s2,s2,-1023
    4aa8:	02012a23          	sw	zero,52(sp)
    4aac:	a29ff06f          	j	44d4 <_dtoa_r+0x1ac>
    4ab0:	00100793          	li	a5,1
    4ab4:	414787b3          	sub	a5,a5,s4
    4ab8:	00f12423          	sw	a5,8(sp)
    4abc:	00000b13          	li	s6,0
    4ac0:	b20c40e3          	bltz	s8,45e0 <_dtoa_r+0x2b8>
    4ac4:	01812e23          	sw	s8,28(sp)
    4ac8:	02012623          	sw	zero,44(sp)
    4acc:	00900793          	li	a5,9
    4ad0:	018b0b33          	add	s6,s6,s8
    4ad4:	b337f8e3          	bgeu	a5,s3,4604 <_dtoa_r+0x2dc>
    4ad8:	00100793          	li	a5,1
    4adc:	00100913          	li	s2,1
    4ae0:	00000993          	li	s3,0
    4ae4:	02f12023          	sw	a5,32(sp)
    4ae8:	fff00a13          	li	s4,-1
    4aec:	00012823          	sw	zero,16(sp)
    4af0:	04042223          	sw	zero,68(s0)
    4af4:	05412023          	sw	s4,64(sp)
    4af8:	00000593          	li	a1,0
    4afc:	b85ff06f          	j	4680 <_dtoa_r+0x358>
    4b00:	00012703          	lw	a4,0(sp)
    4b04:	0001ca97          	auipc	s5,0x1c
    4b08:	868a8a93          	addi	s5,s5,-1944 # 2036c <blanks.1+0x10>
    4b0c:	0001c797          	auipc	a5,0x1c
    4b10:	86878793          	addi	a5,a5,-1944 # 20374 <blanks.1+0x18>
    4b14:	f60714e3          	bnez	a4,4a7c <_dtoa_r+0x754>
    4b18:	90dff06f          	j	4424 <_dtoa_r+0xfc>
    4b1c:	00090513          	mv	a0,s2
    4b20:	02f12c23          	sw	a5,56(sp)
    4b24:	5800b0ef          	jal	ra,100a4 <__floatsidf>
    4b28:	03812783          	lw	a5,56(sp)
    4b2c:	000b8693          	mv	a3,s7
    4b30:	00078613          	mv	a2,a5
    4b34:	04f12223          	sw	a5,68(sp)
    4b38:	45c0a0ef          	jal	ra,ef94 <__muldf3>
    4b3c:	0001b717          	auipc	a4,0x1b
    4b40:	52470713          	addi	a4,a4,1316 # 20060 <__DTOR_END__+0x50>
    4b44:	00072603          	lw	a2,0(a4)
    4b48:	00472683          	lw	a3,4(a4)
    4b4c:	16c090ef          	jal	ra,dcb8 <__adddf3>
    4b50:	fcc00737          	lui	a4,0xfcc00
    4b54:	00b707b3          	add	a5,a4,a1
    4b58:	02f12c23          	sw	a5,56(sp)
    4b5c:	04412783          	lw	a5,68(sp)
    4b60:	00050c93          	mv	s9,a0
    4b64:	0001b717          	auipc	a4,0x1b
    4b68:	50470713          	addi	a4,a4,1284 # 20068 <__DTOR_END__+0x58>
    4b6c:	00072603          	lw	a2,0(a4)
    4b70:	00472683          	lw	a3,4(a4)
    4b74:	00078513          	mv	a0,a5
    4b78:	000b8593          	mv	a1,s7
    4b7c:	33d0a0ef          	jal	ra,f6b8 <__subdf3>
    4b80:	03812783          	lw	a5,56(sp)
    4b84:	000c8613          	mv	a2,s9
    4b88:	00050b93          	mv	s7,a0
    4b8c:	00078693          	mv	a3,a5
    4b90:	00058913          	mv	s2,a1
    4b94:	1fc0a0ef          	jal	ra,ed90 <__gedf2>
    4b98:	50a044e3          	bgtz	a0,58a0 <_dtoa_r+0x1578>
    4b9c:	03812703          	lw	a4,56(sp)
    4ba0:	800007b7          	lui	a5,0x80000
    4ba4:	000b8513          	mv	a0,s7
    4ba8:	00e7c7b3          	xor	a5,a5,a4
    4bac:	000c8613          	mv	a2,s9
    4bb0:	00078693          	mv	a3,a5
    4bb4:	00090593          	mv	a1,s2
    4bb8:	2dc0a0ef          	jal	ra,ee94 <__ledf2>
    4bbc:	06054c63          	bltz	a0,4c34 <_dtoa_r+0x90c>
    4bc0:	06c12783          	lw	a5,108(sp)
    4bc4:	1a07c263          	bltz	a5,4d68 <_dtoa_r+0xa40>
    4bc8:	01c12683          	lw	a3,28(sp)
    4bcc:	00e00713          	li	a4,14
    4bd0:	0001c917          	auipc	s2,0x1c
    4bd4:	e0090913          	addi	s2,s2,-512 # 209d0 <__mprec_tens>
    4bd8:	18d74863          	blt	a4,a3,4d68 <_dtoa_r+0xa40>
    4bdc:	01c12783          	lw	a5,28(sp)
    4be0:	00379793          	slli	a5,a5,0x3
    4be4:	00f907b3          	add	a5,s2,a5
    4be8:	0007a903          	lw	s2,0(a5) # 80000000 <_stack+0x7ffc0000>
    4bec:	0047a983          	lw	s3,4(a5)
    4bf0:	01012783          	lw	a5,16(sp)
    4bf4:	0407dc63          	bgez	a5,4c4c <_dtoa_r+0x924>
    4bf8:	05404a63          	bgtz	s4,4c4c <_dtoa_r+0x924>
    4bfc:	020a1c63          	bnez	s4,4c34 <_dtoa_r+0x90c>
    4c00:	0001b797          	auipc	a5,0x1b
    4c04:	46878793          	addi	a5,a5,1128 # 20068 <__DTOR_END__+0x58>
    4c08:	0007a603          	lw	a2,0(a5)
    4c0c:	0047a683          	lw	a3,4(a5)
    4c10:	00090513          	mv	a0,s2
    4c14:	00098593          	mv	a1,s3
    4c18:	37c0a0ef          	jal	ra,ef94 <__muldf3>
    4c1c:	00050613          	mv	a2,a0
    4c20:	00058693          	mv	a3,a1
    4c24:	01412503          	lw	a0,20(sp)
    4c28:	01812583          	lw	a1,24(sp)
    4c2c:	2680a0ef          	jal	ra,ee94 <__ledf2>
    4c30:	46a048e3          	bgtz	a0,58a0 <_dtoa_r+0x1578>
    4c34:	000a8713          	mv	a4,s5
    4c38:	00000b93          	li	s7,0
    4c3c:	00000913          	li	s2,0
    4c40:	01012783          	lw	a5,16(sp)
    4c44:	fff7cc13          	not	s8,a5
    4c48:	6840006f          	j	52cc <_dtoa_r+0xfa4>
    4c4c:	01412b83          	lw	s7,20(sp)
    4c50:	01812b03          	lw	s6,24(sp)
    4c54:	00090613          	mv	a2,s2
    4c58:	00098693          	mv	a3,s3
    4c5c:	000b8513          	mv	a0,s7
    4c60:	000b0593          	mv	a1,s6
    4c64:	11d090ef          	jal	ra,e580 <__divdf3>
    4c68:	3b80b0ef          	jal	ra,10020 <__fixdfsi>
    4c6c:	00050d13          	mv	s10,a0
    4c70:	4340b0ef          	jal	ra,100a4 <__floatsidf>
    4c74:	00090613          	mv	a2,s2
    4c78:	00098693          	mv	a3,s3
    4c7c:	3180a0ef          	jal	ra,ef94 <__muldf3>
    4c80:	00050613          	mv	a2,a0
    4c84:	00058693          	mv	a3,a1
    4c88:	000b8513          	mv	a0,s7
    4c8c:	000b0593          	mv	a1,s6
    4c90:	2290a0ef          	jal	ra,f6b8 <__subdf3>
    4c94:	030d0793          	addi	a5,s10,48
    4c98:	00fa8023          	sb	a5,0(s5)
    4c9c:	00100613          	li	a2,1
    4ca0:	00050713          	mv	a4,a0
    4ca4:	00058693          	mv	a3,a1
    4ca8:	001a8b93          	addi	s7,s5,1
    4cac:	0cca06e3          	beq	s4,a2,5578 <_dtoa_r+0x1250>
    4cb0:	0001b617          	auipc	a2,0x1b
    4cb4:	3a860613          	addi	a2,a2,936 # 20058 <__DTOR_END__+0x48>
    4cb8:	00062783          	lw	a5,0(a2)
    4cbc:	00462803          	lw	a6,4(a2)
    4cc0:	00100d93          	li	s11,1
    4cc4:	00f12423          	sw	a5,8(sp)
    4cc8:	01012623          	sw	a6,12(sp)
    4ccc:	0600006f          	j	4d2c <_dtoa_r+0xa04>
    4cd0:	00090613          	mv	a2,s2
    4cd4:	00098693          	mv	a3,s3
    4cd8:	000c0513          	mv	a0,s8
    4cdc:	000b0593          	mv	a1,s6
    4ce0:	0a1090ef          	jal	ra,e580 <__divdf3>
    4ce4:	33c0b0ef          	jal	ra,10020 <__fixdfsi>
    4ce8:	00050d13          	mv	s10,a0
    4cec:	3b80b0ef          	jal	ra,100a4 <__floatsidf>
    4cf0:	00090613          	mv	a2,s2
    4cf4:	00098693          	mv	a3,s3
    4cf8:	29c0a0ef          	jal	ra,ef94 <__muldf3>
    4cfc:	00058693          	mv	a3,a1
    4d00:	00050613          	mv	a2,a0
    4d04:	000b0593          	mv	a1,s6
    4d08:	000c0513          	mv	a0,s8
    4d0c:	1ad0a0ef          	jal	ra,f6b8 <__subdf3>
    4d10:	001b8b93          	addi	s7,s7,1
    4d14:	030d0793          	addi	a5,s10,48
    4d18:	001d8d93          	addi	s11,s11,1
    4d1c:	fefb8fa3          	sb	a5,-1(s7)
    4d20:	00050713          	mv	a4,a0
    4d24:	00058693          	mv	a3,a1
    4d28:	05ba08e3          	beq	s4,s11,5578 <_dtoa_r+0x1250>
    4d2c:	00812603          	lw	a2,8(sp)
    4d30:	00068593          	mv	a1,a3
    4d34:	00c12683          	lw	a3,12(sp)
    4d38:	00070513          	mv	a0,a4
    4d3c:	2580a0ef          	jal	ra,ef94 <__muldf3>
    4d40:	00000613          	li	a2,0
    4d44:	00000693          	li	a3,0
    4d48:	00050c13          	mv	s8,a0
    4d4c:	00058b13          	mv	s6,a1
    4d50:	7b5090ef          	jal	ra,ed04 <__eqdf2>
    4d54:	f6051ee3          	bnez	a0,4cd0 <_dtoa_r+0x9a8>
    4d58:	01c12783          	lw	a5,28(sp)
    4d5c:	000b8713          	mv	a4,s7
    4d60:	00178c13          	addi	s8,a5,1
    4d64:	1d40006f          	j	4f38 <_dtoa_r+0xc10>
    4d68:	02012703          	lw	a4,32(sp)
    4d6c:	26071a63          	bnez	a4,4fe0 <_dtoa_r+0xcb8>
    4d70:	02c12b83          	lw	s7,44(sp)
    4d74:	00812c83          	lw	s9,8(sp)
    4d78:	02012023          	sw	zero,32(sp)
    4d7c:	00000913          	li	s2,0
    4d80:	020c8263          	beqz	s9,4da4 <_dtoa_r+0xa7c>
    4d84:	03605063          	blez	s6,4da4 <_dtoa_r+0xa7c>
    4d88:	000c8793          	mv	a5,s9
    4d8c:	639b4c63          	blt	s6,s9,53c4 <_dtoa_r+0x109c>
    4d90:	00812703          	lw	a4,8(sp)
    4d94:	40fc8cb3          	sub	s9,s9,a5
    4d98:	40fb0b33          	sub	s6,s6,a5
    4d9c:	40f70733          	sub	a4,a4,a5
    4da0:	00e12423          	sw	a4,8(sp)
    4da4:	02c12783          	lw	a5,44(sp)
    4da8:	02078263          	beqz	a5,4dcc <_dtoa_r+0xaa4>
    4dac:	02012783          	lw	a5,32(sp)
    4db0:	00078463          	beqz	a5,4db8 <_dtoa_r+0xa90>
    4db4:	060b92e3          	bnez	s7,5618 <_dtoa_r+0x12f0>
    4db8:	02c12603          	lw	a2,44(sp)
    4dbc:	00048593          	mv	a1,s1
    4dc0:	00040513          	mv	a0,s0
    4dc4:	5d5030ef          	jal	ra,8b98 <__pow5mult>
    4dc8:	00050493          	mv	s1,a0
    4dcc:	00100593          	li	a1,1
    4dd0:	00040513          	mv	a0,s0
    4dd4:	2e1030ef          	jal	ra,88b4 <__i2b>
    4dd8:	00050b93          	mv	s7,a0
    4ddc:	500c1863          	bnez	s8,52ec <_dtoa_r+0xfc4>
    4de0:	00100793          	li	a5,1
    4de4:	5737d463          	bge	a5,s3,534c <_dtoa_r+0x1024>
    4de8:	016787b3          	add	a5,a5,s6
    4dec:	01f7f793          	andi	a5,a5,31
    4df0:	1e078463          	beqz	a5,4fd8 <_dtoa_r+0xcb0>
    4df4:	02000713          	li	a4,32
    4df8:	40f70733          	sub	a4,a4,a5
    4dfc:	00400693          	li	a3,4
    4e00:	58e6d863          	bge	a3,a4,5390 <_dtoa_r+0x1068>
    4e04:	01c00713          	li	a4,28
    4e08:	40f707b3          	sub	a5,a4,a5
    4e0c:	00812703          	lw	a4,8(sp)
    4e10:	00fc8cb3          	add	s9,s9,a5
    4e14:	00fb0b33          	add	s6,s6,a5
    4e18:	00f70733          	add	a4,a4,a5
    4e1c:	00e12423          	sw	a4,8(sp)
    4e20:	00812783          	lw	a5,8(sp)
    4e24:	14f04263          	bgtz	a5,4f68 <_dtoa_r+0xc40>
    4e28:	01605c63          	blez	s6,4e40 <_dtoa_r+0xb18>
    4e2c:	000b8593          	mv	a1,s7
    4e30:	000b0613          	mv	a2,s6
    4e34:	00040513          	mv	a0,s0
    4e38:	6b1030ef          	jal	ra,8ce8 <__lshift>
    4e3c:	00050b93          	mv	s7,a0
    4e40:	03012783          	lw	a5,48(sp)
    4e44:	12079e63          	bnez	a5,4f80 <_dtoa_r+0xc58>
    4e48:	43405863          	blez	s4,5278 <_dtoa_r+0xf50>
    4e4c:	02012783          	lw	a5,32(sp)
    4e50:	24079663          	bnez	a5,509c <_dtoa_r+0xd74>
    4e54:	01c12783          	lw	a5,28(sp)
    4e58:	00178c13          	addi	s8,a5,1
    4e5c:	00100993          	li	s3,1
    4e60:	0200006f          	j	4e80 <_dtoa_r+0xb58>
    4e64:	00048593          	mv	a1,s1
    4e68:	00000693          	li	a3,0
    4e6c:	00a00613          	li	a2,10
    4e70:	00040513          	mv	a0,s0
    4e74:	668030ef          	jal	ra,84dc <__multadd>
    4e78:	00050493          	mv	s1,a0
    4e7c:	00198993          	addi	s3,s3,1
    4e80:	000b8593          	mv	a1,s7
    4e84:	00048513          	mv	a0,s1
    4e88:	ac4ff0ef          	jal	ra,414c <quorem>
    4e8c:	03050d13          	addi	s10,a0,48
    4e90:	013a87b3          	add	a5,s5,s3
    4e94:	ffa78fa3          	sb	s10,-1(a5)
    4e98:	fd49c6e3          	blt	s3,s4,4e64 <_dtoa_r+0xb3c>
    4e9c:	00100713          	li	a4,1
    4ea0:	01405463          	blez	s4,4ea8 <_dtoa_r+0xb80>
    4ea4:	000a0713          	mv	a4,s4
    4ea8:	00ea8a33          	add	s4,s5,a4
    4eac:	00000993          	li	s3,0
    4eb0:	00048593          	mv	a1,s1
    4eb4:	00100613          	li	a2,1
    4eb8:	00040513          	mv	a0,s0
    4ebc:	62d030ef          	jal	ra,8ce8 <__lshift>
    4ec0:	000b8593          	mv	a1,s7
    4ec4:	00050493          	mv	s1,a0
    4ec8:	7b1030ef          	jal	ra,8e78 <__mcmp>
    4ecc:	4ca05a63          	blez	a0,53a0 <_dtoa_r+0x1078>
    4ed0:	03900693          	li	a3,57
    4ed4:	0080006f          	j	4edc <_dtoa_r+0xbb4>
    4ed8:	5d4a8063          	beq	s5,s4,5498 <_dtoa_r+0x1170>
    4edc:	fffa4783          	lbu	a5,-1(s4)
    4ee0:	000a0713          	mv	a4,s4
    4ee4:	fffa0a13          	addi	s4,s4,-1
    4ee8:	fed788e3          	beq	a5,a3,4ed8 <_dtoa_r+0xbb0>
    4eec:	00178793          	addi	a5,a5,1
    4ef0:	00fa0023          	sb	a5,0(s4)
    4ef4:	000b8593          	mv	a1,s7
    4ef8:	00040513          	mv	a0,s0
    4efc:	00e12423          	sw	a4,8(sp)
    4f00:	5b8030ef          	jal	ra,84b8 <_Bfree>
    4f04:	00812703          	lw	a4,8(sp)
    4f08:	02090863          	beqz	s2,4f38 <_dtoa_r+0xc10>
    4f0c:	00098c63          	beqz	s3,4f24 <_dtoa_r+0xbfc>
    4f10:	01298a63          	beq	s3,s2,4f24 <_dtoa_r+0xbfc>
    4f14:	00098593          	mv	a1,s3
    4f18:	00040513          	mv	a0,s0
    4f1c:	59c030ef          	jal	ra,84b8 <_Bfree>
    4f20:	00812703          	lw	a4,8(sp)
    4f24:	00090593          	mv	a1,s2
    4f28:	00040513          	mv	a0,s0
    4f2c:	00e12423          	sw	a4,8(sp)
    4f30:	588030ef          	jal	ra,84b8 <_Bfree>
    4f34:	00812703          	lw	a4,8(sp)
    4f38:	00048593          	mv	a1,s1
    4f3c:	00040513          	mv	a0,s0
    4f40:	00e12423          	sw	a4,8(sp)
    4f44:	574030ef          	jal	ra,84b8 <_Bfree>
    4f48:	00812703          	lw	a4,8(sp)
    4f4c:	00412783          	lw	a5,4(sp)
    4f50:	00070023          	sb	zero,0(a4)
    4f54:	0187a023          	sw	s8,0(a5)
    4f58:	00012783          	lw	a5,0(sp)
    4f5c:	cc078463          	beqz	a5,4424 <_dtoa_r+0xfc>
    4f60:	00e7a023          	sw	a4,0(a5)
    4f64:	cc0ff06f          	j	4424 <_dtoa_r+0xfc>
    4f68:	00048593          	mv	a1,s1
    4f6c:	00078613          	mv	a2,a5
    4f70:	00040513          	mv	a0,s0
    4f74:	575030ef          	jal	ra,8ce8 <__lshift>
    4f78:	00050493          	mv	s1,a0
    4f7c:	eadff06f          	j	4e28 <_dtoa_r+0xb00>
    4f80:	000b8593          	mv	a1,s7
    4f84:	00048513          	mv	a0,s1
    4f88:	6f1030ef          	jal	ra,8e78 <__mcmp>
    4f8c:	ea055ee3          	bgez	a0,4e48 <_dtoa_r+0xb20>
    4f90:	00048593          	mv	a1,s1
    4f94:	00000693          	li	a3,0
    4f98:	00a00613          	li	a2,10
    4f9c:	00040513          	mv	a0,s0
    4fa0:	53c030ef          	jal	ra,84dc <__multadd>
    4fa4:	01c12783          	lw	a5,28(sp)
    4fa8:	00050493          	mv	s1,a0
    4fac:	fff78a13          	addi	s4,a5,-1
    4fb0:	02012783          	lw	a5,32(sp)
    4fb4:	0c079063          	bnez	a5,5074 <_dtoa_r+0xd4c>
    4fb8:	04012783          	lw	a5,64(sp)
    4fbc:	16f054e3          	blez	a5,5924 <_dtoa_r+0x15fc>
    4fc0:	01c12c03          	lw	s8,28(sp)
    4fc4:	00078a13          	mv	s4,a5
    4fc8:	e95ff06f          	j	4e5c <_dtoa_r+0xb34>
    4fcc:	00100793          	li	a5,1
    4fd0:	02f12823          	sw	a5,48(sp)
    4fd4:	e00ff06f          	j	45d4 <_dtoa_r+0x2ac>
    4fd8:	01c00793          	li	a5,28
    4fdc:	e31ff06f          	j	4e0c <_dtoa_r+0xae4>
    4fe0:	00100713          	li	a4,1
    4fe4:	49375663          	bge	a4,s3,5470 <_dtoa_r+0x1148>
    4fe8:	02c12783          	lw	a5,44(sp)
    4fec:	fffa0b93          	addi	s7,s4,-1
    4ff0:	3d77ce63          	blt	a5,s7,53cc <_dtoa_r+0x10a4>
    4ff4:	41778bb3          	sub	s7,a5,s7
    4ff8:	00812783          	lw	a5,8(sp)
    4ffc:	41478cb3          	sub	s9,a5,s4
    5000:	3e0a4a63          	bltz	s4,53f4 <_dtoa_r+0x10cc>
    5004:	00078c93          	mv	s9,a5
    5008:	014787b3          	add	a5,a5,s4
    500c:	014b0b33          	add	s6,s6,s4
    5010:	00f12423          	sw	a5,8(sp)
    5014:	3e00006f          	j	53f4 <_dtoa_r+0x10cc>
    5018:	40e787b3          	sub	a5,a5,a4
    501c:	00fd9533          	sll	a0,s11,a5
    5020:	c98ff06f          	j	44b8 <_dtoa_r+0x190>
    5024:	00300793          	li	a5,3
    5028:	00100913          	li	s2,1
    502c:	42f98e63          	beq	s3,a5,5468 <_dtoa_r+0x1140>
    5030:	df37c863          	blt	a5,s3,4620 <_dtoa_r+0x2f8>
    5034:	00200793          	li	a5,2
    5038:	02012023          	sw	zero,32(sp)
    503c:	16f996e3          	bne	s3,a5,59a8 <_dtoa_r+0x1680>
    5040:	01012603          	lw	a2,16(sp)
    5044:	2ec05c63          	blez	a2,533c <_dtoa_r+0x1014>
    5048:	04c12023          	sw	a2,64(sp)
    504c:	00060a13          	mv	s4,a2
    5050:	e04ff06f          	j	4654 <_dtoa_r+0x32c>
    5054:	02012823          	sw	zero,48(sp)
    5058:	00012423          	sw	zero,8(sp)
    505c:	a74044e3          	bgtz	s4,4ac4 <_dtoa_r+0x79c>
    5060:	00100793          	li	a5,1
    5064:	414787b3          	sub	a5,a5,s4
    5068:	00f12423          	sw	a5,8(sp)
    506c:	00000b13          	li	s6,0
    5070:	a55ff06f          	j	4ac4 <_dtoa_r+0x79c>
    5074:	00090593          	mv	a1,s2
    5078:	00000693          	li	a3,0
    507c:	00a00613          	li	a2,10
    5080:	00040513          	mv	a0,s0
    5084:	458030ef          	jal	ra,84dc <__multadd>
    5088:	04012783          	lw	a5,64(sp)
    508c:	00050913          	mv	s2,a0
    5090:	0cf052e3          	blez	a5,5954 <_dtoa_r+0x162c>
    5094:	01412e23          	sw	s4,28(sp)
    5098:	00078a13          	mv	s4,a5
    509c:	01905c63          	blez	s9,50b4 <_dtoa_r+0xd8c>
    50a0:	00090593          	mv	a1,s2
    50a4:	000c8613          	mv	a2,s9
    50a8:	00040513          	mv	a0,s0
    50ac:	43d030ef          	jal	ra,8ce8 <__lshift>
    50b0:	00050913          	mv	s2,a0
    50b4:	00090b13          	mv	s6,s2
    50b8:	500c1e63          	bnez	s8,55d4 <_dtoa_r+0x12ac>
    50bc:	02812783          	lw	a5,40(sp)
    50c0:	fffa8d13          	addi	s10,s5,-1
    50c4:	000a8c93          	mv	s9,s5
    50c8:	0017f793          	andi	a5,a5,1
    50cc:	014d0d33          	add	s10,s10,s4
    50d0:	00f12823          	sw	a5,16(sp)
    50d4:	01512a23          	sw	s5,20(sp)
    50d8:	01b12c23          	sw	s11,24(sp)
    50dc:	000b8593          	mv	a1,s7
    50e0:	00048513          	mv	a0,s1
    50e4:	868ff0ef          	jal	ra,414c <quorem>
    50e8:	00050c13          	mv	s8,a0
    50ec:	00090593          	mv	a1,s2
    50f0:	00048513          	mv	a0,s1
    50f4:	585030ef          	jal	ra,8e78 <__mcmp>
    50f8:	000b8593          	mv	a1,s7
    50fc:	00050a13          	mv	s4,a0
    5100:	000b0613          	mv	a2,s6
    5104:	00040513          	mv	a0,s0
    5108:	5c9030ef          	jal	ra,8ed0 <__mdiff>
    510c:	00c52703          	lw	a4,12(a0)
    5110:	00050593          	mv	a1,a0
    5114:	030c0a93          	addi	s5,s8,48
    5118:	08071a63          	bnez	a4,51ac <_dtoa_r+0xe84>
    511c:	00a12423          	sw	a0,8(sp)
    5120:	00048513          	mv	a0,s1
    5124:	555030ef          	jal	ra,8e78 <__mcmp>
    5128:	00812583          	lw	a1,8(sp)
    512c:	00050d93          	mv	s11,a0
    5130:	00040513          	mv	a0,s0
    5134:	384030ef          	jal	ra,84b8 <_Bfree>
    5138:	01b9e633          	or	a2,s3,s11
    513c:	0e061a63          	bnez	a2,5230 <_dtoa_r+0xf08>
    5140:	01012783          	lw	a5,16(sp)
    5144:	76078c63          	beqz	a5,58bc <_dtoa_r+0x1594>
    5148:	780a4663          	bltz	s4,58d4 <_dtoa_r+0x15ac>
    514c:	015c8023          	sb	s5,0(s9)
    5150:	001c8a13          	addi	s4,s9,1
    5154:	699d0463          	beq	s10,s9,57dc <_dtoa_r+0x14b4>
    5158:	00048593          	mv	a1,s1
    515c:	00000693          	li	a3,0
    5160:	00a00613          	li	a2,10
    5164:	00040513          	mv	a0,s0
    5168:	374030ef          	jal	ra,84dc <__multadd>
    516c:	00050493          	mv	s1,a0
    5170:	00090593          	mv	a1,s2
    5174:	00000693          	li	a3,0
    5178:	00a00613          	li	a2,10
    517c:	00040513          	mv	a0,s0
    5180:	09690e63          	beq	s2,s6,521c <_dtoa_r+0xef4>
    5184:	358030ef          	jal	ra,84dc <__multadd>
    5188:	000b0593          	mv	a1,s6
    518c:	00050913          	mv	s2,a0
    5190:	00000693          	li	a3,0
    5194:	00a00613          	li	a2,10
    5198:	00040513          	mv	a0,s0
    519c:	340030ef          	jal	ra,84dc <__multadd>
    51a0:	00050b13          	mv	s6,a0
    51a4:	000a0c93          	mv	s9,s4
    51a8:	f35ff06f          	j	50dc <_dtoa_r+0xdb4>
    51ac:	00040513          	mv	a0,s0
    51b0:	000a8d13          	mv	s10,s5
    51b4:	01812d83          	lw	s11,24(sp)
    51b8:	01412a83          	lw	s5,20(sp)
    51bc:	2fc030ef          	jal	ra,84b8 <_Bfree>
    51c0:	000a4a63          	bltz	s4,51d4 <_dtoa_r+0xeac>
    51c4:	001df713          	andi	a4,s11,1
    51c8:	0149ea33          	or	s4,s3,s4
    51cc:	01476733          	or	a4,a4,s4
    51d0:	08071063          	bnez	a4,5250 <_dtoa_r+0xf28>
    51d4:	00048593          	mv	a1,s1
    51d8:	00100613          	li	a2,1
    51dc:	00040513          	mv	a0,s0
    51e0:	309030ef          	jal	ra,8ce8 <__lshift>
    51e4:	000b8593          	mv	a1,s7
    51e8:	00050493          	mv	s1,a0
    51ec:	48d030ef          	jal	ra,8e78 <__mcmp>
    51f0:	24a05463          	blez	a0,5438 <_dtoa_r+0x1110>
    51f4:	03900713          	li	a4,57
    51f8:	24ed0863          	beq	s10,a4,5448 <_dtoa_r+0x1120>
    51fc:	031c0d13          	addi	s10,s8,49
    5200:	01c12783          	lw	a5,28(sp)
    5204:	00090993          	mv	s3,s2
    5208:	001c8713          	addi	a4,s9,1
    520c:	01ac8023          	sb	s10,0(s9)
    5210:	00178c13          	addi	s8,a5,1
    5214:	000b0913          	mv	s2,s6
    5218:	cddff06f          	j	4ef4 <_dtoa_r+0xbcc>
    521c:	2c0030ef          	jal	ra,84dc <__multadd>
    5220:	00050913          	mv	s2,a0
    5224:	00050b13          	mv	s6,a0
    5228:	000a0c93          	mv	s9,s4
    522c:	eb1ff06f          	j	50dc <_dtoa_r+0xdb4>
    5230:	7c0a4663          	bltz	s4,59fc <_dtoa_r+0x16d4>
    5234:	01012783          	lw	a5,16(sp)
    5238:	0149ea33          	or	s4,s3,s4
    523c:	0147ea33          	or	s4,a5,s4
    5240:	7a0a0e63          	beqz	s4,59fc <_dtoa_r+0x16d4>
    5244:	f1b054e3          	blez	s11,514c <_dtoa_r+0xe24>
    5248:	000a8d13          	mv	s10,s5
    524c:	01412a83          	lw	s5,20(sp)
    5250:	03900713          	li	a4,57
    5254:	1eed0a63          	beq	s10,a4,5448 <_dtoa_r+0x1120>
    5258:	01c12683          	lw	a3,28(sp)
    525c:	001d0793          	addi	a5,s10,1
    5260:	00090993          	mv	s3,s2
    5264:	001c8713          	addi	a4,s9,1
    5268:	00168c13          	addi	s8,a3,1 # 3ff00001 <_stack+0x3fec0001>
    526c:	00fc8023          	sb	a5,0(s9)
    5270:	000b0913          	mv	s2,s6
    5274:	c81ff06f          	j	4ef4 <_dtoa_r+0xbcc>
    5278:	00200793          	li	a5,2
    527c:	bd37d8e3          	bge	a5,s3,4e4c <_dtoa_r+0xb24>
    5280:	000a8713          	mv	a4,s5
    5284:	9a0a1ee3          	bnez	s4,4c40 <_dtoa_r+0x918>
    5288:	000b8593          	mv	a1,s7
    528c:	00000693          	li	a3,0
    5290:	00500613          	li	a2,5
    5294:	00040513          	mv	a0,s0
    5298:	01512423          	sw	s5,8(sp)
    529c:	240030ef          	jal	ra,84dc <__multadd>
    52a0:	00050593          	mv	a1,a0
    52a4:	00050b93          	mv	s7,a0
    52a8:	00048513          	mv	a0,s1
    52ac:	3cd030ef          	jal	ra,8e78 <__mcmp>
    52b0:	00812703          	lw	a4,8(sp)
    52b4:	98a056e3          	blez	a0,4c40 <_dtoa_r+0x918>
    52b8:	03100793          	li	a5,49
    52bc:	00fa8023          	sb	a5,0(s5)
    52c0:	01c12783          	lw	a5,28(sp)
    52c4:	001a8713          	addi	a4,s5,1
    52c8:	00178c13          	addi	s8,a5,1
    52cc:	000b8593          	mv	a1,s7
    52d0:	00040513          	mv	a0,s0
    52d4:	00e12423          	sw	a4,8(sp)
    52d8:	1e0030ef          	jal	ra,84b8 <_Bfree>
    52dc:	00812703          	lw	a4,8(sp)
    52e0:	001c0c13          	addi	s8,s8,1
    52e4:	c40910e3          	bnez	s2,4f24 <_dtoa_r+0xbfc>
    52e8:	c51ff06f          	j	4f38 <_dtoa_r+0xc10>
    52ec:	00050593          	mv	a1,a0
    52f0:	000c0613          	mv	a2,s8
    52f4:	00040513          	mv	a0,s0
    52f8:	0a1030ef          	jal	ra,8b98 <__pow5mult>
    52fc:	00100793          	li	a5,1
    5300:	00050b93          	mv	s7,a0
    5304:	1137d263          	bge	a5,s3,5408 <_dtoa_r+0x10e0>
    5308:	00000c13          	li	s8,0
    530c:	010ba783          	lw	a5,16(s7)
    5310:	00378793          	addi	a5,a5,3
    5314:	00279793          	slli	a5,a5,0x2
    5318:	00fb87b3          	add	a5,s7,a5
    531c:	0047a503          	lw	a0,4(a5)
    5320:	43c030ef          	jal	ra,875c <__hi0bits>
    5324:	02000793          	li	a5,32
    5328:	40a787b3          	sub	a5,a5,a0
    532c:	abdff06f          	j	4de8 <_dtoa_r+0xac0>
    5330:	00100793          	li	a5,1
    5334:	02f12023          	sw	a5,32(sp)
    5338:	d09ff06f          	j	5040 <_dtoa_r+0xd18>
    533c:	00100793          	li	a5,1
    5340:	00100a13          	li	s4,1
    5344:	00f12823          	sw	a5,16(sp)
    5348:	fa8ff06f          	j	4af0 <_dtoa_r+0x7c8>
    534c:	02812783          	lw	a5,40(sp)
    5350:	02079c63          	bnez	a5,5388 <_dtoa_r+0x1060>
    5354:	00cd1793          	slli	a5,s10,0xc
    5358:	02079863          	bnez	a5,5388 <_dtoa_r+0x1060>
    535c:	7ff007b7          	lui	a5,0x7ff00
    5360:	00fd77b3          	and	a5,s10,a5
    5364:	00000713          	li	a4,0
    5368:	00078c63          	beqz	a5,5380 <_dtoa_r+0x1058>
    536c:	00812783          	lw	a5,8(sp)
    5370:	001b0b13          	addi	s6,s6,1
    5374:	00100713          	li	a4,1
    5378:	00178793          	addi	a5,a5,1 # 7ff00001 <_stack+0x7fec0001>
    537c:	00f12423          	sw	a5,8(sp)
    5380:	560c1063          	bnez	s8,58e0 <_dtoa_r+0x15b8>
    5384:	00070c13          	mv	s8,a4
    5388:	00100793          	li	a5,1
    538c:	a5dff06f          	j	4de8 <_dtoa_r+0xac0>
    5390:	a8d708e3          	beq	a4,a3,4e20 <_dtoa_r+0xaf8>
    5394:	03c00713          	li	a4,60
    5398:	40f707b3          	sub	a5,a4,a5
    539c:	a71ff06f          	j	4e0c <_dtoa_r+0xae4>
    53a0:	00051663          	bnez	a0,53ac <_dtoa_r+0x1084>
    53a4:	001d7793          	andi	a5,s10,1
    53a8:	b20794e3          	bnez	a5,4ed0 <_dtoa_r+0xba8>
    53ac:	03000693          	li	a3,48
    53b0:	fffa4783          	lbu	a5,-1(s4)
    53b4:	000a0713          	mv	a4,s4
    53b8:	fffa0a13          	addi	s4,s4,-1
    53bc:	fed78ae3          	beq	a5,a3,53b0 <_dtoa_r+0x1088>
    53c0:	b35ff06f          	j	4ef4 <_dtoa_r+0xbcc>
    53c4:	000b0793          	mv	a5,s6
    53c8:	9c9ff06f          	j	4d90 <_dtoa_r+0xa68>
    53cc:	02c12783          	lw	a5,44(sp)
    53d0:	00812703          	lw	a4,8(sp)
    53d4:	03712623          	sw	s7,44(sp)
    53d8:	40fb87b3          	sub	a5,s7,a5
    53dc:	00fc0c33          	add	s8,s8,a5
    53e0:	014707b3          	add	a5,a4,s4
    53e4:	00070c93          	mv	s9,a4
    53e8:	014b0b33          	add	s6,s6,s4
    53ec:	00f12423          	sw	a5,8(sp)
    53f0:	00000b93          	li	s7,0
    53f4:	00100593          	li	a1,1
    53f8:	00040513          	mv	a0,s0
    53fc:	4b8030ef          	jal	ra,88b4 <__i2b>
    5400:	00050913          	mv	s2,a0
    5404:	97dff06f          	j	4d80 <_dtoa_r+0xa58>
    5408:	02812783          	lw	a5,40(sp)
    540c:	ee079ee3          	bnez	a5,5308 <_dtoa_r+0xfe0>
    5410:	00cd1793          	slli	a5,s10,0xc
    5414:	ee079ae3          	bnez	a5,5308 <_dtoa_r+0xfe0>
    5418:	f45ff06f          	j	535c <_dtoa_r+0x1034>
    541c:	01412303          	lw	t1,20(sp)
    5420:	01812883          	lw	a7,24(sp)
    5424:	00200913          	li	s2,2
    5428:	ae8ff06f          	j	4710 <_dtoa_r+0x3e8>
    542c:	00200993          	li	s3,2
    5430:	02012023          	sw	zero,32(sp)
    5434:	c0dff06f          	j	5040 <_dtoa_r+0xd18>
    5438:	dc0514e3          	bnez	a0,5200 <_dtoa_r+0xed8>
    543c:	001d7713          	andi	a4,s10,1
    5440:	da071ae3          	bnez	a4,51f4 <_dtoa_r+0xecc>
    5444:	dbdff06f          	j	5200 <_dtoa_r+0xed8>
    5448:	03900793          	li	a5,57
    544c:	00fc8023          	sb	a5,0(s9)
    5450:	01c12783          	lw	a5,28(sp)
    5454:	00090993          	mv	s3,s2
    5458:	001c8a13          	addi	s4,s9,1
    545c:	00178c13          	addi	s8,a5,1
    5460:	000b0913          	mv	s2,s6
    5464:	a6dff06f          	j	4ed0 <_dtoa_r+0xba8>
    5468:	02012023          	sw	zero,32(sp)
    546c:	9c8ff06f          	j	4634 <_dtoa_r+0x30c>
    5470:	03412703          	lw	a4,52(sp)
    5474:	34070063          	beqz	a4,57b4 <_dtoa_r+0x148c>
    5478:	00812703          	lw	a4,8(sp)
    547c:	43378793          	addi	a5,a5,1075
    5480:	00fb0b33          	add	s6,s6,a5
    5484:	00f707b3          	add	a5,a4,a5
    5488:	02c12b83          	lw	s7,44(sp)
    548c:	00070c93          	mv	s9,a4
    5490:	00f12423          	sw	a5,8(sp)
    5494:	f61ff06f          	j	53f4 <_dtoa_r+0x10cc>
    5498:	03100793          	li	a5,49
    549c:	00fa8023          	sb	a5,0(s5)
    54a0:	001c0c13          	addi	s8,s8,1
    54a4:	a51ff06f          	j	4ef4 <_dtoa_r+0xbcc>
    54a8:	01c12783          	lw	a5,28(sp)
    54ac:	3c078c63          	beqz	a5,5884 <_dtoa_r+0x155c>
    54b0:	40f00cb3          	neg	s9,a5
    54b4:	00fcf793          	andi	a5,s9,15
    54b8:	00379793          	slli	a5,a5,0x3
    54bc:	0001b917          	auipc	s2,0x1b
    54c0:	51490913          	addi	s2,s2,1300 # 209d0 <__mprec_tens>
    54c4:	00f907b3          	add	a5,s2,a5
    54c8:	0007a603          	lw	a2,0(a5)
    54cc:	0047a683          	lw	a3,4(a5)
    54d0:	01412503          	lw	a0,20(sp)
    54d4:	01812583          	lw	a1,24(sp)
    54d8:	404cdc93          	srai	s9,s9,0x4
    54dc:	2b9090ef          	jal	ra,ef94 <__muldf3>
    54e0:	480c8863          	beqz	s9,5970 <_dtoa_r+0x1648>
    54e4:	00200913          	li	s2,2
    54e8:	000d8713          	mv	a4,s11
    54ec:	0001b817          	auipc	a6,0x1b
    54f0:	4bc80813          	addi	a6,a6,1212 # 209a8 <__mprec_bigtens>
    54f4:	02912c23          	sw	s1,56(sp)
    54f8:	04812223          	sw	s0,68(sp)
    54fc:	00050793          	mv	a5,a0
    5500:	00090413          	mv	s0,s2
    5504:	00000693          	li	a3,0
    5508:	00080493          	mv	s1,a6
    550c:	00050913          	mv	s2,a0
    5510:	00058d93          	mv	s11,a1
    5514:	00070b93          	mv	s7,a4
    5518:	001cf713          	andi	a4,s9,1
    551c:	02070063          	beqz	a4,553c <_dtoa_r+0x1214>
    5520:	0044a683          	lw	a3,4(s1)
    5524:	0004a603          	lw	a2,0(s1)
    5528:	00078513          	mv	a0,a5
    552c:	00140413          	addi	s0,s0,1
    5530:	265090ef          	jal	ra,ef94 <__muldf3>
    5534:	00050793          	mv	a5,a0
    5538:	00100693          	li	a3,1
    553c:	401cdc93          	srai	s9,s9,0x1
    5540:	00848493          	addi	s1,s1,8
    5544:	fc0c9ae3          	bnez	s9,5518 <_dtoa_r+0x11f0>
    5548:	000b8713          	mv	a4,s7
    554c:	00090513          	mv	a0,s2
    5550:	00058b93          	mv	s7,a1
    5554:	00040913          	mv	s2,s0
    5558:	000d8593          	mv	a1,s11
    555c:	03812483          	lw	s1,56(sp)
    5560:	04412403          	lw	s0,68(sp)
    5564:	00070d93          	mv	s11,a4
    5568:	a2069863          	bnez	a3,4798 <_dtoa_r+0x470>
    556c:	00050793          	mv	a5,a0
    5570:	00058b93          	mv	s7,a1
    5574:	a24ff06f          	j	4798 <_dtoa_r+0x470>
    5578:	00070613          	mv	a2,a4
    557c:	00070513          	mv	a0,a4
    5580:	00068593          	mv	a1,a3
    5584:	734080ef          	jal	ra,dcb8 <__adddf3>
    5588:	01c12783          	lw	a5,28(sp)
    558c:	00090613          	mv	a2,s2
    5590:	00098693          	mv	a3,s3
    5594:	00178c13          	addi	s8,a5,1
    5598:	00050b13          	mv	s6,a0
    559c:	00058a13          	mv	s4,a1
    55a0:	7f0090ef          	jal	ra,ed90 <__gedf2>
    55a4:	000c0c93          	mv	s9,s8
    55a8:	c6a04663          	bgtz	a0,4a14 <_dtoa_r+0x6ec>
    55ac:	000b0513          	mv	a0,s6
    55b0:	000a0593          	mv	a1,s4
    55b4:	00090613          	mv	a2,s2
    55b8:	00098693          	mv	a3,s3
